; ModuleID = 'C:/Users/jespe/Desktop/Uni_Civil_9_Semester/Embedded_course/ERTS_final_project/HLS_project/NeuralNetwork_HLS/solution1_/.autopilot/db/a.o.2.bc'
target datalayout = "e-p:32:32:32-i1:8:8-i8:8:8-i16:16:16-i32:32:32-i64:64:64-f32:32:32-f64:64:64-f80:128:128-v64:64:64-v128:128:128-a0:0:64-f80:32:32-n8:16:32-S32"
target triple = "i686-pc-mingw32"

@weights_ = internal unnamed_addr global [11200 x i8] c"\FE\FF\FF\06\01\00\02\03\03\FF\02\01\FE\03\FF\01\04\FB\FF\FE\FD\01\00\FD\FC\00\00\02\01\05\FD\FE\05\01\FE\FF\03\03\FE\03\03\01\04\02\01\00\FF\FE\FC\FF\FE\02\00\FF\FA\04\01\FE\FF\02\FC\FE\FE\00\FE\05\00\FF\02\00\01\FF\00\02\FB\FD\FE\04\02\FC\FF\FA\FE\01\02\FE\03\02\01\FE\04\FF\FD\FE\02\03\04\00\00\00\01\FD\03\03\03\00\03\01\03\FE\03\FE\FD\FD\03\FF\01\04\FE\02\00\04\FE\FF\03\FC\FF\04\FD\05\F9\FE\FB\FD\FE\01\01\05\01\04\FF\FF\FF\04\FE\02\00\FB\FA\02\00\00\FB\02\FE\01\FE\05\FE\01\FE\00\FB\03\FC\07\00\01\03\FF\01\FF\FD\FF\02\01\00\FD\FF\FC\01\FE\02\04\00\FC\04\FE\01\02\03\FB\FF\00\01\FD\03\03\02\00\FD\FE\00\FE\00\05\FE\02\FC\04\00\05\00\FF\FB\01\04\FF\01\FE\05\00\FB\01\01\00\FC\FA\FF\05\FF\01\FB\FD\FD\04\FC\03\00\01\FD\02\00\02\FF\01\FE\01\FF\00\00\FE\02\FC\05\FB\FD\01\01\FE\05\02\01\FE\FE\FB\FC\FD\05\03\FD\01\FF\01\FE\02\00\00\01\04\01\02\01\FD\FF\03\FE\00\FF\01\00\FF\03\FE\00\04\FA\FD\00\04\FF\FB\01\FF\FF\FF\FE\01\00\FC\06\FD\FF\01\FB\05\FD\FF\00\FF\FD\02\01\FE\00\00\03\00\04\03\00\01\00\01\01\FD\00\02\00\00\02\04\01\01\00\FF\02\01\FF\02\FF\00\FE\04\FF\FF\FE\FD\FF\FE\FF\01\FF\00\00\05\02\02\00\01\FC\05\04\FD\FE\FF\00\01\FE\FF\FB\F8\01\00\02\FD\FD\00\00\03\FF\00\FA\FF\FE\FF\00\FE\02\FF\FF\FF\07\FF\FF\FE\04\00\FE\03\00\05\03\FD\FD\FC\00\03\FF\FD\FC\00\00\FB\03\FD\03\FE\FD\FE\00\FF\FF\00\06\00\04\FF\FD\00\03\00\FD\FD\FD\FE\FF\FF\00\FF\01\05\00\FE\FC\FE\FD\FD\04\03\FE\FF\FF\FC\04\00\FF\03\02\FC\05\FF\FF\FF\FD\00\02\00\04\FF\01\FF\FF\FD\00\FD\00\01\01\FA\FF\00\04\00\05\FE\03\02\FA\02\03\03\FE\FD\00\00\FF\00\00\00\01\FE\FD\05\FE\00\FC\01\04\FF\04\FE\02\FC\FF\FC\FE\04\FE\01\00\FF\FD\01\FF\FF\00\03\FC\00\00\01\03\00\FD\FC\FF\FA\02\04\01\00\FF\03\FD\03\FD\00\FF\FE\00\FE\FC\FE\FC\FF\03\02\FE\FE\02\FB\FC\01\FE\FA\FE\04\00\00\03\05\FE\FF\03\03\01\02\01\00\04\04\FE\01\03\FD\FD\FF\02\02\03\00\FC\02\FF\00\FC\FC\FF\FF\FE\01\02\00\03\FC\FE\FE\FC\FC\00\FD\02\00\FD\FD\FF\02\FC\FF\00\FF\06\FF\FD\00\FC\06\01\04\00\FE\FD\FE\01\00\FF\00\FF\01\FD\01\03\01\FF\02\FD\01\FD\05\FE\01\FF\FF\FD\01\F9\01\01\FE\00\FC\00\03\FD\05\FE\03\02\FC\00\00\01\04\00\00\02\FC\08\FD\00\04\FC\FD\01\00\FE\01\FE\FF\01\01\00\04\FD\01\02\00\FF\04\FF\00\04\FF\FF\FD\FD\FE\02\FD\02\00\03\FE\01\00\01\FB\00\FE\05\05\FA\01\01\FD\FD\01\FB\00\FF\02\01\FD\FA\02\00\FE\FD\FD\FC\01\FD\02\FE\FF\04\01\01\FD\FD\04\FB\FF\FF\02\01\FE\00\01\02\FF\01\FE\01\FE\FD\03\FC\01\FD\01\03\02\FC\FE\FF\00\00\03\00\00\01\03\05\01\00\FD\01\01\FF\00\FD\FF\FC\02\FE\05\FE\02\02\02\FF\03\02\FE\00\FF\FD\02\03\FC\05\FF\01\FC\FC\02\FF\03\00\00\FE\03\FE\FE\FE\FD\02\04\FF\00\04\01\01\06\00\02\00\FF\03\FB\FB\FD\00\FB\FD\01\FB\F9\00\FD\FD\04\FD\FE\03\FD\FD\01\FD\FD\FD\00\03\FC\06\FC\00\01\FE\FF\00\02\02\02\FF\03\05\00\02\FF\FF\FC\00\FC\01\FF\FF\FF\00\FC\04\FE\FD\FB\03\FD\FF\02\05\FF\00\04\03\FB\FF\FF\00\00\02\FF\04\FC\04\FF\00\FD\01\01\05\00\00\04\FD\02\00\00\FF\01\FE\01\01\FF\00\FF\FF\FE\FF\FE\FB\03\05\00\03\02\01\FC\01\00\01\02\00\01\02\FE\FD\02\FF\00\FE\02\03\FB\02\FD\01\01\03\01\01\00\FE\FD\03\FF\05\00\00\02\00\02\FF\FE\00\FC\00\FF\FB\01\FC\FC\FE\FF\FF\FE\FC\FE\01\FA\FF\FD\01\00\FF\00\04\FF\FF\FD\FF\04\01\FF\00\FF\FD\03\FB\02\FE\FD\FE\02\FF\01\FF\FD\01\FF\03\03\04\FF\FF\05\01\FF\04\00\03\01\00\03\01\FF\FF\01\FF\FF\FA\05\00\01\06\FF\01\00\03\02\FE\04\FF\02\FD\FF\06\00\02\00\00\00\02\09\FF\FC\02\01\FF\FC\FD\02\02\FF\FF\FF\FE\FE\00\03\01\01\00\02\01\03\01\01\00\01\FD\FA\01\02\FF\FF\02\FB\04\FD\01\02\FB\00\02\05\02\01\04\03\FF\00\05\FC\FF\02\05\02\FF\01\FF\05\FD\02\FF\01\02\FD\FE\00\FF\FE\02\02\FD\FF\FF\03\04\00\FE\03\02\03\FD\01\01\FE\04\02\02\FD\02\04\00\05\00\FF\FD\FE\02\03\03\FE\01\FE\01\03\FE\05\FE\FE\FD\FE\FD\08\FF\01\02\FE\FB\03\FF\01\FF\00\FE\03\01\06\03\00\01\01\02\FE\FE\FF\04\04\01\FE\02\01\01\FC\02\FD\FF\FF\06\00\03\00\FF\02\01\FA\FE\01\FE\00\01\02\01\01\00\06\00\04\FD\06\FE\02\FC\FE\00\00\FC\FD\02\01\FF\FF\FD\01\FF\FF\04\FF\F9\FE\04\FE\05\FB\03\02\08\01\FF\FD\FF\FD\FE\02\00\04\FF\FF\FE\FE\FF\01\FF\FB\02\02\00\03\FD\FE\00\01\02\05\FE\04\02\FE\FE\03\03\03\FF\03\04\01\03\01\00\FF\FC\03\FE\00\FF\03\01\FF\FE\06\FE\FF\00\03\03\05\01\00\04\FC\00\01\02\FF\FF\FC\FB\00\01\05\FE\00\FE\01\01\07\01\FE\05\FB\00\02\FE\02\FD\03\FD\FB\FB\01\04\FF\FD\FE\00\02\02\02\FD\FF\02\FE\FE\02\03\01\FE\02\00\FF\01\02\04\FE\02\00\02\FD\FD\02\FE\FE\01\03\00\02\00\FE\01\01\02\01\FC\00\01\FF\03\00\FE\04\FF\FC\01\00\02\FE\00\FF\FE\03\00\FE\FE\01\FC\05\08\FF\FE\FF\FF\01\01\FE\06\05\00\01\00\01\01\FD\03\02\06\FF\FE\FE\FE\00\04\01\01\FC\02\FD\03\02\FC\00\FF\FE\02\04\02\FF\FD\00\FB\FA\FE\03\F9\FE\02\FE\02\00\02\02\FF\FD\00\FE\FD\FD\FF\FA\FD\01\FC\FE\02\03\00\00\FE\FE\04\FB\00\06\FB\FF\00\01\02\01\02\04\FF\05\04\01\FF\FE\03\01\02\03\FE\FC\FE\00\00\04\FC\FE\00\03\00\01\04\FC\FD\01\00\FF\FE\01\01\FF\04\03\00\FE\FE\FE\FE\02\FF\FF\02\FD\03\FF\01\02\00\01\FF\01\01\FB\FC\04\FE\FC\FF\02\01\FE\00\01\FE\FE\FE\01\01\03\02\04\FC\03\04\FF\01\01\00\03\00\03\03\FF\FE\FE\FF\00\FE\02\02\FE\FF\FE\FA\FE\00\FF\03\00\03\00\01\01\FF\00\FD\FD\FF\00\04\00\FB\FE\03\02\04\00\FF\01\00\FD\00\05\00\03\FF\00\02\FE\FE\05\FF\00\FD\FF\FC\02\01\04\FE\FD\02\05\00\FF\02\FE\05\03\FF\01\FF\04\FC\02\FF\02\FF\00\00\03\FF\00\FE\FC\FE\04\02\FD\05\03\02\FE\FF\FC\05\FD\02\FF\02\FE\04\FE\03\FF\FF\01\03\00\03\00\00\03\03\FF\FF\01\01\FF\FE\FF\01\FF\00\01\00\FC\06\FE\FB\FB\04\03\FD\FE\00\00\01\03\00\FF\FF\FE\FF\FE\00\FD\02\FE\01\FF\01\FD\03\01\FE\FD\00\FF\00\05\04\FD\02\00\00\03\05\04\FF\03\FF\FC\FE\FF\02\04\FF\FE\01\FB\FD\01\01\00\FD\FC\FC\01\01\05\FE\01\FC\00\FB\03\04\FF\01\02\01\FD\01\FF\00\01\03\06\00\04\02\00\FF\01\FF\03\FF\02\FE\00\01\01\FE\05\FF\FC\FE\01\FE\01\FF\02\03\00\FF\00\FF\01\01\03\FE\FF\FE\FD\FF\00\03\00\03\03\FF\FE\FF\03\02\FE\00\02\FA\01\04\02\00\00\FF\00\03\FE\03\FF\FC\FD\01\00\01\FE\00\01\01\FD\03\FD\01\01\01\02\03\01\00\01\00\01\04\FF\FE\00\02\03\FF\FE\03\FE\FF\00\FD\FD\FE\02\FD\02\00\F9\02\02\01\02\FF\F9\02\02\00\FE\01\01\03\FF\FD\FC\FD\FF\FE\FC\FC\FD\00\FD\02\00\00\03\FF\02\01\04\00\FE\04\00\FD\02\FE\02\FE\00\00\04\00\05\00\02\FD\00\02\FE\FC\FF\00\02\01\02\01\02\FB\01\02\FF\01\01\FF\02\00\FE\FD\01\04\00\01\00\03\02\FF\01\02\FF\FF\02\00\FE\FD\FE\02\FC\FE\FF\FE\01\FF\FF\02\07\02\03\FC\FF\FC\FF\FC\04\FB\04\02\01\02\03\FB\00\FF\FC\FE\FE\02\01\00\FF\FF\02\01\02\02\00\01\FF\00\01\FE\FF\00\02\02\02\05\FD\08\F9\02\01\03\01\00\FF\02\FD\03\02\02\01\02\01\02\FE\01\01\02\02\01\02\03\02\FE\FF\01\01\FD\03\FE\FD\FF\FE\01\FE\FE\01\05\FB\FC\FF\03\01\02\01\FB\02\01\00\FD\03\01\02\FD\FE\FE\03\02\01\FD\FF\FB\00\FE\01\02\FD\03\FF\FF\00\01\FF\00\03\00\02\FC\03\FF\05\00\FC\FA\FF\02\00\FF\03\FB\F8\FE\02\02\02\FF\01\FB\05\00\FA\FD\02\02\01\F9\01\FE\FE\02\FF\F9\03\02\01\FD\00\02\01\FC\02\02\03\01\00\FD\00\FC\FF\FE\FD\02\FC\FD\02\FF\00\05\FF\FC\FE\FF\00\FF\01\01\00\02\02\FF\FE\FD\FE\00\00\02\FF\03\01\00\02\FE\02\FF\03\01\01\03\00\FD\03\01\FC\00\FD\FF\FF\02\00\04\FF\FD\FE\01\02\FF\FF\02\00\03\FD\FC\FF\FE\02\FE\FC\04\04\FF\FF\FF\00\01\FC\FD\01\FF\00\FD\04\FC\00\FD\00\02\FE\01\FF\FD\00\FE\FD\01\02\01\FD\05\01\04\FF\FD\02\FF\02\FF\02\06\00\FF\FD\02\01\01\01\FB\FB\01\01\FC\FF\00\FC\03\FD\03\04\01\03\00\FA\03\02\01\FC\FF\00\01\FF\02\FF\05\00\01\01\00\FF\FE\FE\FE\04\02\FF\FE\FF\01\00\FD\05\01\03\01\01\01\01\FF\00\03\FF\00\FD\03\FE\01\FE\02\00\01\FF\FF\01\02\00\FC\FF\01\00\FC\03\FF\01\FD\00\FF\FF\05\02\00\FF\00\02\FF\01\01\06\02\FC\02\00\06\00\00\FE\FE\01\FA\00\FD\FE\FE\01\02\FD\FF\03\FC\00\02\01\01\FC\00\FA\FF\05\00\FD\02\00\01\FE\FE\04\FE\00\FC\FF\07\FD\FE\FF\01\00\FF\FD\FF\02\FB\02\FD\02\FD\02\04\03\01\04\FF\FE\00\01\00\04\FE\FE\00\00\02\00\00\FE\FE\FD\01\FD\04\FE\02\00\05\FF\00\02\01\FF\01\00\FF\FE\FD\FF\01\FC\03\01\02\04\00\FF\00\00\FE\06\FE\FD\02\00\01\FF\02\02\FD\FE\04\00\02\FF\04\FF\06\FF\03\FF\00\FE\00\FD\02\04\FF\00\02\FF\01\FF\01\02\00\FF\01\FF\01\02\FC\FF\02\03\03\00\00\FF\FF\03\FD\FE\04\FE\00\02\FC\02\01\FD\FF\01\01\04\03\02\00\00\FF\FF\FF\01\FF\01\00\FF\02\06\FE\FB\FF\01\FE\FE\05\00\04\FB\FF\03\04\00\FD\02\FE\00\FE\FB\00\FE\03\03\03\00\00\01\04\00\01\FF\FE\00\00\00\00\FE\00\FC\FF\00\FD\03\02\FF\05\FD\01\02\04\FC\FE\04\03\03\FF\01\FE\00\03\00\FF\FB\02\00\FE\03\FF\03\00\03\00\FF\03\FE\FF\FD\01\03\04\FE\02\FD\FC\FE\FD\00\01\FD\00\03\01\FF\00\FE\01\FF\01\01\FB\00\05\02\00\01\FE\FE\03\FE\FE\02\03\02\00\00\00\FF\00\02\03\FE\01\00\FE\FE\00\FE\FC\00\FD\02\FB\01\FE\01\FD\04\00\FF\02\00\01\00\01\01\03\02\02\00\00\FE\FE\01\FE\03\FF\01\02\00\04\00\03\03\FE\02\FD\01\03\01\04\FF\FD\FF\02\06\02\FD\00\FE\FE\01\03\04\00\FF\FE\FF\03\FF\01\FD\FE\01\05\FE\01\FE\01\FD\02\02\00\FC\00\FE\FE\01\FE\01\FB\FE\02\01\01\FB\02\FE\FB\FF\FC\02\FE\FC\01\00\00\FE\00\FE\FE\02\00\FE\02\FD\01\FF\04\00\FF\00\00\FC\FF\00\FF\04\FD\05\01\FF\02\02\02\00\FF\01\04\00\FF\FF\FC\02\04\FC\FF\03\FF\00\02\02\FE\F8\FE\FE\00\02\FE\00\01\FE\02\FE\07\00\01\FB\01\00\FF\FF\02\00\00\FF\FF\00\01\04\00\00\02\01\01\02\FF\01\02\FF\00\00\03\FD\01\FD\01\FE\FB\FD\01\02\00\FE\01\FE\02\FB\FD\02\FC\00\01\01\FC\FF\01\01\04\00\01\FD\FF\FF\02\FF\00\01\FD\01\FE\FF\02\01\03\00\01\FB\FF\00\00\FD\FF\FF\FE\FE\FF\01\FD\00\00\01\FF\FA\02\FD\01\FF\FD\FD\02\01\FF\02\00\FF\04\00\01\02\FF\02\02\01\00\00\02\FF\FC\00\FE\FE\FA\05\FE\FD\01\01\00\01\03\00\FF\01\00\FF\00\FE\FF\02\FD\04\FD\04\FE\00\01\FD\FD\FE\00\05\FF\02\04\FF\01\01\FF\04\03\FC\FE\FE\02\FC\04\00\FD\FD\FF\01\FE\02\03\00\FD\FC\FF\FE\FB\03\00\FD\00\FF\00\03\00\03\FD\01\FE\02\FF\FC\00\FD\FB\FF\FF\01\01\FC\01\FF\03\FF\01\FE\FF\05\02\FF\01\02\FE\04\00\FE\FF\FC\00\FE\01\03\04\F9\02\03\00\03\FE\00\FD\FE\FF\04\FC\FE\01\FF\FF\00\FF\FC\05\FD\FE\00\FE\00\00\FD\00\03\04\FC\03\03\02\FC\FF\FF\FA\04\01\01\00\02\01\00\01\FA\00\01\00\00\00\03\FF\FC\FE\FF\FF\03\02\04\00\FE\FE\FD\FE\FF\02\00\FB\FD\00\01\00\02\00\FF\FE\00\02\00\FF\FF\FF\00\03\03\FE\00\FF\04\FF\00\FF\FF\02\00\03\02\FF\00\02\FF\01\01\00\05\02\FC\02\01\05\03\FE\00\FE\00\00\FE\FF\01\01\FD\01\FF\00\00\04\00\02\01\FC\FF\03\FE\00\03\FF\02\01\FF\FE\01\FE\00\00\01\FD\FF\03\FD\FD\01\02\02\03\02\00\FF\04\FC\02\02\FD\FF\FF\FF\00\02\01\FE\00\01\01\FD\04\FE\00\FE\00\FE\FD\FD\01\01\00\02\02\FD\FF\00\01\01\03\01\00\02\00\00\FD\02\02\02\01\01\01\FF\FB\05\03\01\04\FF\FD\FE\02\01\FD\FF\FD\FF\01\03\00\05\01\FF\01\FE\FB\01\04\00\FD\FF\FD\FF\FF\FB\FC\04\00\FF\01\01\00\03\FE\FF\FF\FF\02\FD\FD\FD\00\03\01\00\01\FE\FE\00\00\FE\02\FD\FE\FD\FE\FE\03\FF\FD\00\01\FC\05\00\FF\02\00\03\01\04\01\FE\FF\02\03\00\01\03\FF\01\FE\FE\04\02\02\FF\07\01\FF\FF\01\02\00\02\00\02\FF\FF\FB\03\FF\02\04\FF\FE\FD\00\FD\FD\02\FF\FE\01\04\01\04\FB\02\00\FF\FF\01\01\FD\01\01\01\FF\02\00\FF\00\01\03\00\01\FD\01\02\02\00\FA\FB\02\01\01\00\FB\FF\FF\02\00\FB\00\04\00\02\01\01\03\01\02\FE\00\FF\01\FD\01\00\FE\FF\04\01\FB\02\01\00\FE\FE\01\FF\FE\04\02\FC\FE\02\FE\FF\FC\02\00\05\04\02\00\00\FF\FD\03\03\FD\FE\00\01\FE\01\01\01\FB\FE\00\02\00\02\01\FF\01\01\00\FE\03\00\02\FD\01\FD\FC\01\FF\01\00\01\01\FE\01\02\00\00\00\FF\FC\FF\01\FF\FE\01\FE\FD\00\03\00\04\FE\04\02\02\FD\00\FF\03\00\00\FE\01\01\FC\FD\00\02\00\00\FE\FD\00\00\00\03\04\02\00\00\04\FA\00\FD\00\FD\FF\00\06\03\04\FF\04\FF\FD\FE\01\00\02\FF\06\FD\FD\00\03\01\FE\FE\01\FF\FD\00\01\00\02\FF\FF\02\00\01\FD\FF\00\02\03\02\01\FD\FE\FC\FF\03\F9\FD\01\01\FD\07\FF\FD\00\FC\01\FF\FB\00\01\01\00\04\05\FE\FD\03\FF\FD\02\00\FD\04\01\02\03\05\FD\FC\FF\FE\03\00\FF\03\FE\01\00\FE\FE\FB\00\01\01\FE\00\02\03\00\FE\02\00\FF\FF\01\05\04\FF\FD\FF\FC\00\FE\FE\FF\FE\00\01\02\02\FD\FF\00\FF\FD\04\01\FC\00\FF\FD\FF\FE\01\01\03\FD\01\02\FF\FD\00\FE\00\FF\FE\00\06\01\01\FE\03\01\FD\FE\03\01\FD\00\FF\F8\FF\00\03\FE\02\FF\FF\03\00\00\00\03\02\FE\01\FF\01\00\FB\01\02\02\02\01\FF\00\FC\02\FF\05\FE\04\00\01\FC\FE\FE\FE\02\FF\FF\00\FC\FF\FE\01\FD\FE\FE\FF\FF\01\05\FD\03\FF\00\FE\FF\FF\01\03\01\FF\01\01\05\01\02\02\01\00\01\02\03\FF\00\02\FF\03\FD\00\FF\FF\FF\FE\01\FC\FC\FF\00\FE\00\FE\00\00\00\02\FD\00\01\FD\00\02\01\FD\FE\00\FD\FC\FF\FF\FF\01\01\03\FD\00\01\02\02\00\00\00\00\FC\03\00\00\01\03\FF\03\FE\FE\00\FF\00\02\00\00\FE\FE\FF\01\FE\01\FD\02\00\FF\03\03\01\01\00\FE\FE\FF\FF\01\00\FF\00\FE\FC\FF\00\FE\FF\FC\01\00\00\00\FF\01\00\FD\FD\01\01\00\FF\03\02\01\00\02\FE\03\FE\FF\03\03\00\FF\FC\FF\FF\02\FC\03\03\FF\00\00\FE\01\03\03\00\FF\FB\04\03\01\00\01\00\00\FF\FF\FE\00\01\02\01\FB\FF\02\FE\FE\03\FF\FB\FD\03\06\FC\FF\02\FC\FF\FF\01\04\FC\00\FF\02\FD\01\FE\01\FE\02\01\FF\00\01\00\F8\FD\01\02\FA\00\00\02\02\00\00\01\FE\00\00\FF\F8\FC\FE\01\FB\00\01\00\FD\FC\FF\01\FB\FC\01\02\01\FB\FB\FD\FE\01\00\FE\02\FD\04\FE\02\FE\05\03\03\FF\FE\FD\04\FF\FD\FD\02\01\00\00\02\FF\02\03\00\01\00\02\04\FE\FD\00\FE\01\FF\00\02\04\FE\FB\02\FE\02\01\00\02\FF\03\FF\00\01\FB\03\FF\FD\FE\00\03\01\03\03\02\03\FE\02\FF\02\FE\02\FD\FC\FF\03\01\00\FE\00\FF\FD\FB\FD\FD\FF\FE\FD\FD\01\FE\02\03\FD\03\FE\04\03\FF\FE\00\01\03\03\05\01\FE\06\FE\02\04\FF\FF\00\00\02\07\FF\03\FE\01\00\01\FE\00\03\03\FE\FF\FE\FD\00\01\03\FE\FD\01\03\FF\FF\FF\FE\01\00\04\FD\05\00\FD\02\FE\FC\01\03\00\FF\01\FE\00\00\02\FC\FD\02\02\FF\FC\01\02\FC\FF\00\FE\FF\FD\01\01\FE\03\00\FE\00\FF\00\00\FF\00\FF\FE\FF\00\02\FF\FB\00\03\04\00\FE\01\02\FE\05\00\03\FC\01\FF\00\FD\FD\FB\03\FD\00\05\FE\FD\FF\FE\01\03\01\FF\FE\FF\02\FB\00\01\00\01\05\FE\01\FF\00\FC\FF\00\FF\FF\03\FE\FF\FF\FF\02\FF\00\00\01\FE\01\00\02\00\FF\FF\01\01\FD\00\02\02\00\01\02\FD\00\FF\02\FF\00\00\03\FE\FE\01\03\FD\FE\02\02\01\FE\FF\03\FF\FE\FF\FD\FF\03\02\00\01\02\FB\FE\01\00\00\00\01\FF\FD\04\FD\01\00\FB\FC\04\01\04\02\00\00\00\00\01\00\02\FF\FB\02\FF\02\FE\01\00\FA\00\03\FB\00\01\01\00\01\01\02\FF\00\02\02\01\FC\00\FD\FB\FB\02\01\03\00\FF\01\FA\FC\03\FE\FF\FF\FD\FE\02\02\00\02\00\FD\FD\02\02\FF\FD\01\FD\FE\00\FC\FF\FD\03\FE\04\04\FC\01\00\00\00\FE\00\FF\02\00\03\02\00\FE\FE\FF\FD\01\02\00\02\FE\FD\04\00\01\FC\FD\FE\01\01\FE\07\06\00\02\04\01\03\04\FE\02\FF\01\FD\FF\01\00\FE\01\FF\02\00\FB\01\FF\00\01\03\01\FD\00\00\FF\02\05\02\FA\04\FF\02\FE\FB\00\FF\F9\04\FE\FF\03\01\FB\FF\00\FF\02\02\FE\04\FD\FF\03\01\FE\FF\FC\FD\FF\FB\00\FD\FC\04\02\02\01\FF\FF\02\FF\02\01\00\FF\03\03\02\FF\05\03\00\02\01\FE\FD\06\01\01\00\00\01\FE\FF\FC\FF\06\02\03\00\01\FF\02\FF\FF\03\02\01\FF\FC\FE\00\FB\FE\03\FE\01\01\FD\FD\FE\01\01\03\FE\04\00\00\00\FE\01\FE\FE\00\00\02\FF\00\01\01\FF\00\FF\03\02\00\01\00\00\FF\FF\01\01\FD\FD\00\FF\01\FF\03\01\FF\00\02\01\01\02\FD\FB\00\04\FE\FE\FF\FF\03\00\01\FF\FE\FB\08\FF\FE\01\01\03\00\FF\FF\00\00\00\01\FC\03\00\04\05\01\02\FF\FC\FF\FB\03\FB\00\FD\FF\00\FC\FF\FE\02\01\00\02\00\03\FC\FF\00\FD\01\03\FE\FF\03\00\FE\00\01\FD\FF\01\00\FF\FD\FF\FE\00\00\00\FE\FC\FD\FF\00\00\FA\02\00\FB\FD\FE\FD\05\01\01\FE\02\FE\FE\00\00\02\FE\01\FE\01\00\FD\00\03\02\FF\03\FF\04\00\FF\02\00\FF\01\FF\01\FC\00\00\FF\00\FF\02\02\FF\01\03\01\FE\01\01\FF\FB\03\FF\FD\01\00\00\FF\FF\01\02\FE\FD\00\FF\00\01\01\FE\FE\01\01\FF\FE\00\04\01\01\01\FD\FC\01\FF\02\09\01\FE\00\00\01\01\02\00\00\00\00\FD\01\01\02\05\01\05\FC\02\03\03\01\03\01\01\00\01\FF\00\FD\00\FE\FF\FF\03\01\01\05\00\FF\FB\02\02\FF\FC\02\02\00\FD\02\03\01\FA\04\FF\FF\00\02\FF\FD\00\FB\01\00\FB\03\00\01\FF\FE\00\01\02\01\02\05\03\00\02\FD\02\FB\00\FF\FE\01\00\FD\00\03\FF\01\00\FF\FC\03\01\FF\01\04\00\FF\FE\FE\FD\00\FE\FF\01\04\01\FF\01\00\03\03\FF\01\FF\FF\00\01\02\FF\01\FD\01\01\FF\FF\03\01\FF\00\02\FD\FF\FF\02\FA\00\FF\01\FF\00\00\00\FE\FE\FE\00\01\FC\03\FD\02\02\01\03\FF\FF\00\01\FF\00\FF\01\04\FD\FD\FE\01\01\01\FD\FE\FE\01\FF\01\FF\02\02\FF\FF\FC\FE\FE\04\FC\FE\FE\FE\FF\FD\FE\FA\03\00\FF\02\00\03\F8\02\01\03\04\FD\FE\FA\01\00\00\FF\FD\00\03\FF\FC\00\06\00\FD\FF\00\FC\FF\FC\FF\01\02\00\01\FE\FF\01\FE\FF\01\FF\03\06\00\01\FC\F9\04\FC\FD\01\02\01\03\FF\04\02\FF\FF\FF\01\00\04\01\01\FD\01\FC\FE\FB\03\FF\01\FE\FF\00\FE\01\FF\01\00\00\02\FD\04\05\05\04\00\FC\00\FB\00\03\FF\00\02\02\04\00\FC\00\01\FD\03\FD\04\FE\FF\02\02\00\01\03\FD\FF\FE\FD\02\FF\FD\FC\01\FC\FE\FF\FF\FE\FE\FE\FF\01\00\02\FB\01\FC\FE\FD\00\01\FD\02\FD\06\01\03\07\FB\FB\02\03\FC\FD\00\00\01\00\FD\FD\04\FF\FD\FB\03\00\01\01\FE\01\FE\00\02\04\FD\01\00\02\FE\01\FF\05\FC\00\FD\FF\03\01\FF\FF\FE\01\03\00\00\01\05\03\02\01\01\FF\04\FD\00\FE\00\FC\FE\01\FE\FE\02\FE\FE\01\00\03\00\00\FF\FF\01\01\FE\04\FD\01\01\FB\FF\FF\FF\02\FF\02\00\FE\FD\03\01\02\03\04\00\FF\02\01\FE\FF\03\02\03\FF\01\FE\FE\FE\03\02\00\01\03\FE\02\04\02\02\03\FD\03\FE\FE\01\02\FC\02\04\FB\00\FD\01\FF\FF\FE\03\01\FD\01\03\03\02\02\01\03\05\01\00\00\FF\FF\04\FF\FE\FC\00\FF\02\02\FF\FC\FF\FE\00\03\FE\FE\01\FD\FC\FF\FE\01\FB\01\02\02\FE\03\FE\FF\FD\00\FF\FB\00\03\FE\FF\FF\00\FD\01\01\FD\02\00\05\FE\FE\03\05\FD\FD\01\FD\03\FD\FE\02\FD\FF\01\FD\03\FD\04\FE\FF\FE\FF\06\03\00\04\FB\FE\02\01\04\FB\FF\FE\FF\FD\FF\FF\FE\FF\00\02\FB\FD\FD\00\FD\00\FE\00\02\FE\03\02\FF\FB\02\FE\FF\00\FF\02\FB\07\FE\01\03\00\03\FC\FD\04\FD\FC\03\02\FD\FF\01\05\01\FC\00\02\03\00\01\00\FC\FD\FF\03\FE\FB\03\FD\01\FF\01\00\00\03\01\04\00\01\FF\02\FC\FB\FF\06\FD\00\FD\FE\FC\04\00\03\04\FD\FE\FF\03\04\00\00\00\FF\01\FF\FE\FD\FC\02\03\FD\FC\03\FD\03\FE\FF\FF\FD\02\05\00\FD\FD\FF\02\01\FF\FD\FE\FD\02\FF\02\FF\00\FD\FD\01\04\01\FF\FF\04\FE\00\FE\FF\04\FF\00\03\01\01\FF\02\02\05\00\00\01\FD\01\01\00\01\01\02\03\FF\02\01\FF\FD\FE\04\00\FF\00\FE\FD\FD\FF\02\03\F9\FD\01\00\02\03\04\FD\00\00\01\01\01\00\FD\FF\01\00\FE\FE\FF\03\05\02\FD\01\00\03\02\04\FD\03\02\02\00\02\FE\FE\00\FA\01\05\03\02\00\02\02\02\01\01\03\FF\04\FE\03\00\03\02\01\FE\05\FB\02\00\03\02\FF\03\04\FD\FF\03\03\01\FE\FE\04\02\FD\04\00\FA\FE\01\02\F9\01\FE\03\FD\FF\00\02\01\FF\02\01\00\03\01\02\02\05\FE\FF\FD\FD\FE\01\00\00\01\02\FC\04\04\FF\01\00\01\FE\03\FC\01\01\FE\FD\01\FF\FF\FF\01\00\00\00\FE\04\01\05\01\FA\01\03\FE\FE\02\01\FB\04\01\05\03\FE\01\03\01\00\FD\FB\01\03\00\FF\FF\FE\02\FF\03\04\FB\FB\FF\FE\FB\02\00\02\04\FE\FF\FC\FF\01\03\02\FC\FE\02\FE\00\03\00\00\02\01\FE\01\FD\05\00\02\00\01\FF\02\FE\06\00\02\00\01\03\02\01\02\04\FF\FE\F8\05\00\01\02\03\FD\FE\00\01\00\01\04\FC\FE\FF\04\03\01\FE\00\00\04\04\01\FA\04\01\02\FF\04\00\01\00\01\01\00\F9\FC\FE\FF\FA\FA\00\00\03\F9\02\01\FD\01\00\02\FF\01\00\FE\03\01\00\FD\02\02\03\07\FF\06\FE\FF\FE\02\FD\01\03\FF\01\01\00\00\03\FE\02\04\01\01\FB\02\FE\01\01\02\FD\FF\FE\03\06\05\FF\FC\02\01\FD\00\FF\01\02\FF\03\FF\01\FE\03\05\03\02\05\FF\01\FD\00\FA\01\FF\FF\03\FD\FE\00\04\03\03\FC\05\FE\02\04\FF\07\03\FB\F6\01\07\FC\FF\FE\FE\FE\FF\03\06\01\FC\02\03\06\01\02\FD\02\00\02\05\04\FB\FF\FD\07\02\00\00\01\04\03\04\00\03\FE\FF\02\00\00\00\FB\00\FA\00\FE\03\02\05\01\00\FE\FD\FC\FF\FE\FF\00\FF\FE\FC\FF\01\FE\02\FD\04\02\04\03\FC\02\FE\03\02\03\01\FA\00\FA\01\06\FF\FB\FB\02\FF\04\06\FF\01\03\02\03\04\02\FB\02\FC\FD\02\02\FE\00\FE\03\FE\01\FD\05\00\FC\01\01\FD\02\FE\FF\FB\00\01\00\FF\01\FC\FF\00\FF\FE\FF\FE\02\00\02\F9\05\01\FE\FE\01\FE\03\FE\03\FA\00\FD\FD\02\01\00\FE\00\03\00\00\04\FC\03\FF\00\FB\FC\FE\01\04\01\04\FA\FE\FF\FF\FD\FE\01\00\03\02\02\01\01\01\01\04\00\01\02\FF\03\FC\FB\01\01\00\02\02\05\02\03\03\02\FE\04\02\03\FE\FE\03\FB\FF\03\FE\05\FD\02\04\FF\03\01\00\00\01\00\00\FA\FB\00\00\03\01\03\FE\03\02\FD\FD\FA\00\FE\FF\01\01\FD\00\FA\02\01\02\02\04\00\FD\02\03\03\FD\FF\05\FF\FB\FD\FE\FD\04\FD\FF\FF\04\00\FD\FF\FB\FC\06\00\03\FF\02\FF\00\02\00\04\FF\F5\04\05\FE\02\02\FD\03\01\FC\FE\00\01\02\01\03\07\06\01\03\FE\FD\02\FD\04\FF\00\00\01\04\01\00\01\FC\04\00\05\00\03\FC\03\00\03\01\FF\03\FE\01\FF\FC\01\FE\02\03\FF\02\04\FF\FA\02\FE\02\03\00\FD\01\FE\01\00\04\FD\FD\02\00\03\01\FF\FD\03\FA\01\FB\00\FE\01\01\01\FE\04\02\FF\00\FF\FF\FC\01\FF\FD\FC\05\01\04\FF\00\01\01\01\FF\FD\00\01\01\FD\01\00\03\01\05\01\01\FB\03\03\01\01\00\FE\FF\00\04\FF\FF\FF\01\FA\01\04\FF\03\01\00\04\FC\FA\00\FF\00\FA\FD\04\06\06\06\FB\02\02\04\FD\FE\02\01\02\FD\04\05\01\00\00\04\05\FC\03\03\04\FC\04\02\01\FB\05\FF\00\F8\02\F8\FC\FE\01\FF\02\02\04\00\FF\06\FD\FB\00\01\00\00\00\03\FE\01\FA\07\03\01\01\FF\01\FD\00\FF\FC\00\FE\01\00\FE\FD\03\00\FE\02\F8\FB\06\03\00\00\00\04\F9\01\FD\FD\03\FC\FA\06\FF\02\FD\03\FF\02\02\03\01\FF\FB\01\00\05\FD\FC\04\03\01\03\05\01\08\FD\04\FE\01\03\03\FF\02\F8\FF\01\04\FE\02\FC\07\00\02\03\04\04\00\00\FF\FC\FB\03\00\01\06\01\FE\05\FF\FF\01\FF\00\01\01\FF\04\01\FF\03\02\FF\05\02\03\01\04\FE\02\FC\03\FB\FF\FF\03\07\03\FE\01\FD\02\FB\FB\FF\FD\FF\FF\02\01\FD\FD\FE\00\03\02\00\01\03\FD\04\FC\01\FC\FF\FF\FF\FF\00\FF\07\FF\04\FE\01\00\02\01\03\FE\FC\00\07\03\01\FA\04\00\03\01\FA\FD\FE\01\01\00\00\FE\01\02\FF\FD\FD\FF\FE\FE\00\00\FE\FC\FF\01\02\FD\FA\01\FF\FE\01\03\FC\02\FC\F9\FD\00\03\FC\01\FC\03\FF\00\00\FE\FD\02\04\FA\FD\03\03\03\01\01\FE\01\03\04\02\FF\03\FF\FF\01\08\02\02\00\05\FF\FD\FC\01\04\FB\FE\FC\FE\FE\03\F8\FD\FB\FB\F9\FE\06\02\04\00\02\03\00\FC\FF\00\FD\01\03\FE\05\02\04\FC\01\FA\04\00\FD\03\01\01\00\00\01\FF\01\FD\F9\00\06\FD\00\FF\FF\FF\00\01\00\03\00\02\02\04\FE\05\03\FE\FD\03\FB\FA\03\FF\03\FF\FF\04\FA\00\02\FD\FE\FF\00\FE\F7\03\00\01\00\02\FD\02\03\FF\00\FA\FD\00\FD\FE\FE\05\FF\F8\03\FE\FE\FB\02\02\02\03\FD\03\03\01\03\FC\FF\FD\03\FF\00\02\01\FE\03\FF\00\03\02\00\03\01\FA\FE\FE\F6\03\00\06\01\FC\00\01\04\04\FC\04\01\FE\03\02\02\FF\02\00\FC\05\FD\02\01\FF\FD\FF\02\FE\FF\01\00\FD\FF\FF\05\01\FC\FD\03\FF\03\02\03\02\FE\02\01\00\F9\FD\00\02\FF\03\03\FA\00\00\05\04\00\02\03\FE\FD\FF\02\05\05\01\01\FA\00\00\00\05\FF\01\03\00\FD\01\03\01\03\FE\FE\00\01\04\FE\FE\05\02\03\04\01\FF\04\00\03\04\02\03\00\FF\FF\02\FC\04\FB\03\02\02\03\FF\FF\02\01\01\02\FC\FD\FF\03\FE\00\00\FD\FC\05\FE\02\00\01\02\01\04\00\00\07\FF\00\04\FB\03\FB\FB\00\04\FD\01\03\FE\FE\01\FF\02\00\01\05\03\03\04\05\FE\01\04\04\FF\FC\04\04\04\FD\00\FC\00\FF\03\FB\04\FC\FC\05\01\00\FE\FF\FD\FF\04\01\FF\03\F9\02\FE\FF\00\02\01\FF\F9\01\04\02\03\02\FD\FC\FF\02\02\FF\FE\02\FD\FF\FE\FC\FE\FC\03\01\00\02\03\01\00\06\FD\04\03\04\03\01\05\01\04\FD\01\01\02\FD\00\FE\03\02\05\03\01\00\FE\01\FC\02\01\FB\00\FC\FC\00\FD\00\02\02\00\04\FF\FF\04\FC\04\01\00\FE\FC\01\FF\01\02\FD\04\00\FF\05\02\FC\02\FE\FD\02\03\02\FD\FF\02\FB\FF\FB\FF\02\00\00\F9\03\FE\FE\FE\FF\FB\07\01\02\02\05\FE\04\01\01\02\FD\FD\FE\00\02\FB\02\01\05\02\02\05\FF\02\01\04\FD\03\FE\00\FF\04\01\04\02\FF\01\FF\FE\00\08\FC\05\02\02\01\00\FF\FE\02\01\FC\00\03\FC\FF\01\05\00\FF\FC\03\FD\03\00\FF\03\01\05\00\FC\00\01\02\FF\01\02\02\02\00\01\03\FE\FF\01\FF\F9\00\00\00\01\02\03\FC\FF\04\03\01\F9\01\FE\02\FE\01\00\00\01\FD\03\00\FE\02\04\01\FF\01\02\04\03\01\03\FF\08\FE\04\03\02\00\FE\00\01\02\FF\00\FD\FE\02\03\05\04\02\FC\01\03\02\01\FE\F9\02\00\01\04\FF\04\FF\00\01\FD\03\00\FE\04\00\FF\FE\00\02\03\FE\03\01\02\FE\00\00\01\04\00\FB\FB\00\FE\FD\FC\00\01\07\FC\FF\02\FB\02\FC\FF\FF\00\04\01\00\05\00\02\06\01\04\01\02\02\03\01\00\FC\01\01\FD\05\FC\01\01\FE\FF\04\00\00\FE\01\05\05\04\04\06\FB\00\FF\05\01\FC\03\FD\F9\FD\01\FC\04\00\01\03\02\04\FB\02\00\01\FE\FA\01\FC\00\FD\02\02\FC\FE\FD\03\02\FF\00\03\FD\FF\01\01\FA\03\03\FF\FB\03\FF\FD\FD\FD\00\01\01\03\FF\01\03\00\FC\FF\00\03\00\03\03\02\02\00\00\FE\FE\FC\FE\00\00\07\00\00\FE\FB\FD\03\FB\02\FE\02\03\05\00\FE\03\02\03\02\02\02\FE\01\02\01\00\FE\03\02\04\00\08\FE\03\FD\02\02\04\04\FE\00\02\FE\02\06\00\FA\FE\FD\FE\FD\01\00\02\01\03\FD\02\FB\00\FC\FC\FD\01\00\FC\01\03\03\00\02\02\05\00\FD\FE\FF\02\05\FD\03\FF\00\00\03\02\FA\FD\02\01\FF\04\01\FB\01\FB\00\02\01\00\FC\FF\01\FD\03\F9\FF\FA\01\FA\03\01\02\00\00\01\03\05\FD\05\01\00\04\03\FD\FE\FE\FD\05\02\01\03\00\FD\04\00\00\FF\01\FE\01\01\02\FF\03\04\02\00\01\FA\02\00\01\FD\04\FD\FC\FA\02\02\01\FC\01\FE\FD\FD\04\FE\02\02\01\00\FB\01\03\FE\FE\00\FE\00\01\04\FE\FF\FC\01\01\FD\00\FD\01\FD\FD\FC\FF\FD\FE\01\FF\FF\FD\03\FD\FB\FE\02\01\03\FE\00\FE\02\FE\03\00\FE\FC\FE\00\01\FC\FE\FB\02\FE\00\FF\FC\01\FF\03\00\03\02\01\FA\04\03\02\FF\01\03\04\FC\02\FF\FF\04\FF\05\FC\01\FE\04\FC\04\04\04\02\FD\05\FD\FF\F9\06\FF\FF\FE\00\03\FD\FF\FF\FE\03\04\03\FF\FE\FF\FD\04\01\FE\04\03\01\00\02\00\00\02\FD\04\FE\FC\FF\FF\02\01\04\01\05\04\05\00\01\01\01\FE\FF\FE\01\FD\05\01\FD\FD\00\02\FE\03\01\FD\FE\FE\00\03\00\01\04\01\02\FF\FF\07\FF\03\FC\02\FE\FB\02\FF\03\01\04\FC\01\00\05\05\03\00\03\04\FF\00\08\02\FB\00\00\FF\FE\FB\01\00\01\FD\FC\FE\FD\06\06\02\FD\FE\04\FE\05\01\FB\FE\FE\01\03\FE\00\02\FD\FF\FE\05\01\FB\FD\FF\FF\05\03\01\FC\01\FD\FE\00\00\06\FE\FE\00\FE\FB\FD\02\FE\00\FD\FE\FF\02\FB\02\04\FD\FC\FA\FC\00\02\03\00\02\FE\00\04\FE\01\FF\03\02\FF\01\00\02\00\05\00\01\03\04\01\00\02\FF\03\04\FD\03\FC\FD\03\01\00\03\04\03\00\FD\00\FD\01\FE\06\03\04\02\FF\FB\01\FD\03\00\FF\00\04\00\FF\05\FE\FC\FB\FF\FE\01\02\03\FC\02\00\FD\FE\03\05\03\FE\02\FF\02\F9\02\02\01\FC\00\FD\05\FE\03\FD\00\02\FE\02\01\04\FF\FF\FF\03\03\03\FA\05\FE\00\02\05\FC\FD\01\05\01\FE\FF\FD\FF\01\04\00\06\FD\00\FF\04\00\FC\FF\01\04\03\02\04\01\FC\FF\00\FA\FE\00\05\01\01\FF\FE\FF\00\FE\FC\FE\FC\FF\00\00\FB\03\04\03\03\02\01\00\04\04\00\FF\02\FE\01\01\FD\04\FE\FF\04\00\03\FE\05\02\03\01\03\FC\00\02\05\FE\FD\01\FE\02\FD\00\FB\01\00\FC\FC\FD\01\FD\00\02\00\01\01\FF\05\04\03\FF\00\01\03\01\FF\00\02\02\02\02\00\00\04\FF\00\FF\FA\00\01\03\00\06\01\03\03\02\02\02\02\FE\FB\04\00\00\00\04\FC\FE\01\03\FF\02\FE\FF\FD\02\F9\FE\01\FD\01\02\03\FF\F8\03\00\01\07\04\00\FF\03\04\FC\FB\00\FC\06\FF\05\00\FF\05\FF\03\01\FB\00\FD\05\02\F8\01\00\03\FE\FF\04\04\02\00\04\FE\FF\03\00\FF\06\03\00\FE\FF\FF\03\FC\FC\02\03\FA\FF\FD\FE\01\03\02\04\FF\00\FE\FC\FC\06\FF\FE\FF\FD\02\02\FD\03\03\FD\FE\00\03\04\02\03\00\06\FD\03\02\04\FD\03\FD\06\02\01\00\01\FB\02\FC\01\FE\05\05\FE\FF\02\04\FF\01\01\FD\01\05\00\02\FF\00\03\01\02\FC\01\02\FF\01\03\00\00\07\05\04\01\02\02\03\01\04\00\00\03\04\FE\00\01\02\03\00\FD\FF\FC\F9\FF\FF\FC\FF\00\02\02\02\FB\04\FE\00\FD\FC\02\00\02\02\04\02\FB\FD\01\03\01\02\02\00\03\03\FF\FE\03\FA\01\04\FD\FD\02\01\04\00\03\02\01\04\FE\FD\00\01\00\01\02\FD\03\03\03\FF\04\FF\FF\FF\FF\02\FF\FD\FF\FF\00\FE\03\00\01\04\FF\02\02\01\01\FF\03\FC\01\05\06\02\02\FF\FB\FE\FF\02\FE\FF\FE\00\01\FD\01\06\FD\FE\02\02\01\05\FF\04\FF\02\FD\02\04\03\FB\02\02\FC\FC\FE\05\00\FF\01\03\00\00\FF\00\F6\FE\FC\00\02\00\01\03\FF\FE\FE\05\03\FF\00\FD\FC\02\FE\03\FF\FC\01\FE\FE\01\01\02\FA\FC\FC\05\00\05\00\01\03\01\00\FB\01\02\00\01\03\00\00\01\FE\F8\01\02\FE\03\06\01\03\FF\FD\FD\02\03\02\08\FE\00\FF\00\01\03\FF\FD\FD\01\FB\01\03\03\03\03\02\FF\02\02\03\01\FB\02\00\02\03\04\FF\FF\FF\02\00\07\00\FE\FF\01\01\01\FE\00\04\05\01\00\03\03\FF\F9\02\00\FD\FD\02\01\FC\FA\01\04\FD\00\00\03\FC\FD\F9\03\05\FC\02\01\02\07\03\FB\01\00\02\03\05\03\FB\03\FE\03\02\FD\00\FB\02\FE\01\03\00\02\00\F7\07\FC\00\FF\00\FF\FE\FE\02\00\FF\01\FF\05\FC\FF\02\FC\01\FE\FE\02\04\02\04\FD\02\FB\FE\FF\FA\05\02\FF\00\FD\00\00\05\02\05\FF\FF\02\02\00\00\01\FF\FB\00\03\00\FF\01\03\FE\FF\FD\05\05\FE\06\FF\02\01\00\FE\02\FF\02\01\02\01\02\FD\FD\FE\FD\FD\FB\02\F8\FD\FE\FF\FE\FF\01\FF\FB\03\00\02\03\FB\04\FC\03\FF\03\FD\FE\FE\00\01\01\00\FD\FE\FF\04\04\FF\03\02\FE\00\FC\FD\FE\FD\03\03\04\FC\FF\00\00\02\00\05\04\FF\03\FE\00\04\01\00\FF\FF\01\01\00\FD\01\FB\FF\FD\01\FC\FE\FA\FB\FB\03\FE\FC\00\04\FE\FF\00\05\FE\03\FB\06\00\FD\FE\FE\01\04\FE\01\00\00\FF\06\04\00\00\03\02\01\03\02\FD\03\03\FC\00\00\02\00\02\FE\01\04\01\03\02\02\FF\FF\FF\FE\03\FF\FB\00\FF\05\FE\03\01\03\FE\FC\FE\FD\04\FF\00\05\00\05\FB\FC\04\00\02\02\03\FE\F9\01\01\02\05\FF\05\01\FD\FF\01\03\FE\02\02\FD\04\01\03\FF\04\02\FF\FD\04\00\FF\FF\FA\01\03\FC\FF\FF\FE\02\01\FE\02\01\FD\02\FD\02\FF\01\03\01\FD\04\03\FD\FC\00\FA\04\04\00\01\01\01\04\FE\FE\FC\02\00\00\04\05\00\FF\FB\00\04\01\03\FD\FE\00\06\01\04\00\03\00\01\FD\01\04\FF\FF\03\05\00\03\FF\FC\00\FF\00\03\00\FF\01\FE\FF\04\FF\05\FE\03\FE\01\02\03\FD\05\02\03\FE\05\03\00\01\04\FD\01\03\FF\04\FD\FF\00\FC\FF\05\FD\03\FE\02\05\01\FD\FF\02\FC\02\FE\06\02\04\01\01\01\05\00\04\FF\FE\FD\05\03\02\03\01\05\02\07\FF\FB\03\FD\05\02\FE\02\02\00\FD\01\02\03\01\02\02\05\FF\FF\02\02\01\FD\FE\03\FE\FB\FD\04\FB\01\FE\FB\FE\03\00\FE\FD\00\00\03\03\01\00\FD\FC\03\01\00\FD\FC\FF\FF\FF\00\01\03\00\FA\04\FD\FD\05\FC\FE\01\FD\00\00\FE\03\FF\01\FC\03\FE\01\FF\02\01\01\00\06\01\04\FE\FF\00\03\FC\01\F9\04\01\FF\03\03\05\00\00\03\FC\01\01\FD\02\FD\04\FD\03\FD\FE\FF\02\01\01\02\02\02\01\01\01\00\03\FF\04\FD\02\02\FF\FF\00\FD\FF\FD\03\01\02\03\02\02\FF\03\03\01\06\02\04\01\FE\02\FF\FF\02\01\06\FF\04\FC\FB\01\01\FF\00\04\F7\00\FF\FF\FF\FB\02\FE\FC\02\05\FE\FF\FA\05\FB\02\02\FB\02\FF\02\02\03\01\01\FD\01\03\04\FD\05\00\01\FE\04\FD\FF\00\FD\01\FC\FF\FC\FF\01\00\03\01\00\02\02\FD\04\04\FF\FC\02\FE\FF\FE\02\01\03\01\01\FD\FF\05\FC\FE\00\04\FF\01\04\04\FD\00\FD\05\01\04\01\00\F9\02\FE\FF\02\03\02\00\06\FC\06\FD\FA\FF\FE\04\01\01\FF\03\FC\00\03\FF\03\04\01\01\04\01\00\01\01\FB\03\01\FE\FD\01\01\01\FE\FE\01\05\02\02\FB\FA\00\00\05\FE\FE\FE\FE\FC\FE\FB\00\03\FB\00\04\03\FF\FD\02\FD\01\06\FF\02\03\02\00\FF\02\FF\FD\01\FC\03\01\04\04\F9\FD\04\FD\FB\FD\02\FF\F9\00\00\FF\03\FE\04\01\02\05\02\04\06\FD\03\01\06\FD\FD\05\01\01\03\07\FD\FE\08\01\02\03\05\FD\03\FB\FE\01\01\02\FE\00\03\05\02\FC\FF\06\02\FF\01\FD\00\00\03\FF\05\FE\FD\FD\03\00\FF\FE\FC\FF\FE\FE\03\FE\04\01\FD\02\FD\FE\00\FF\02\02\FF\FD\FF\FE\01\00\00\01\01\01\02\02\FF\02\FE\04\04\02\02\00\02\05\03\05\06\01\01\03\02\03\03\00\FA\01\03\FF\03\00\04\00\02\00\03\FF\FD\FD\00\05\01\FE\04\03\FE\06\00\03\00\04\FC\FF\FC\01\03\06\05\02\FC\FE\00\FF\04\00\02\02\00\06\FD\FD\00\FF\FF\05\FB\FB\FE\FD\FB\FD\FE\FF\00\00\01\F9\00\FA\F9\FD\F9\FD\FF\00\FF\FF\02\03\FF\03\05\04\00\FD\00\FD\FF\00\F7\02\03\03\05\03\03\FC\FD\FE\03\FA\00\00\00\03\00\FE\FE\02\FF\FC\FB\03\02\04\FD\01\03\04\02\FF\00\04\00\02\FB\FC\02\02\FD\01\01\FD\FA\FC\01\02\FC\02\04\01\FE\03\F9\FF\03\01\01\F9\FB\01\03\FE\02\FF\FF\FD\02\03\03\01\00\FD\FC\FF\01\FD\FE\FE\01\01\04\03\05\04\FC\01\FC\01\FC\00\03\00\02\FE\04\00\04\FD\02\02\00\04\02\00\03\FC\FC\02\02\05\05\00\00\03\00\03\03\00\01\02\03\02\FC\03\FB\02\00\FE\03\FF\02\00\FC\06\FF\FD\00\01\04\03\02\FF\FE\02\FD\FD\FE\FF\02\01\00\01\FE\03\FF\01\FE\01\06\02\05\03\01\00\03\FD\02\FF\01\02\02\00\FF\00\FB\FF\FE\FB\FF\01\FD\04\03\FD\03\04\FC\FD\00\04\FD\FF\01\FD\04\FD\00\FB\00\FA\FE\FC\03\FB\02\04\FE\01\02\FC\00\FF\FF\FF\FA\03\00\03\FE\FE\FD\00\05\FF\FD\00\04\03\03\FC\03\FE\FC\FB\04\FC\F9\FE\FB\FF\01\01\04\FC\05\FF\03\02\FF\03\FF\05\FF\01\FC\06\FF\FD\FF\FD\02\F8\00\04\01\FD\FC\04\01\00\04\01\00\FF\FD\06\03\02\02\FE\02\02\FE\02\FF\01\FD\FD\03\01\02\03\02\05\FF\FF\FF\01\00\FE\06\00\FC\00\FC\00\00\02\03\02\00\02\05\01\02\FC\07\FE\FB\03\FF\01\01\FD\02\03\03\04\04\FE\02\02\FD\00\02\00\FD\FF\01\00\02\FB\02\07\00\FE\04\FE\FA\00\05\05\01\00\05\03\01\FD\FF\02\01\03\00\05\01\FE\01\00\07\FD\FB\FE\03\0B\FA\02\FC\FF\00\04\FA\F7\FC\FE\FC\FF\03\02\00\06\03\06\FD\FE\07\FF\F8\FF\03\FE\00\FD\03\00\00\FE\00\FC\FC\FF\05\01\FF\00\02\03\FF\FE\02\01\02\FF\FF\FB\FF\00\00\FF\FF\04\02\06\06\01\FE\FD\FF\01\FD\04\00\FD\FD\FD\00\FE\FC\FE\00\04\FE\00\02\01\00\02\02\FF\02\02\FD\01\03\00\01\04\00\04\04\00\02\FF\FF\04\00\FF\00\F8\03\FD\05\FB\02\03\02\FE\02\01\02\01\03\04\FF\03\02\02\FE\03\06\03\01\FD\FD\02\01\FF\03\03\00\04\F9\FE\FD\03\00\05\02\FF\FD\00\01\FE\02\00\00\FD\00\FC\FC\FF\FD\02\00\FD\FF\FD\00\FF\01\01\FA\00\05\00\03\00\00\00\FE\FE\FE\FC\FF\06\00\01\02\05\FF\01\00\FE\00\03\FF\01\F9\FF\04\02\FC\04\04\01\FE\03\FF\FF\FD\FE\07\04\02\01\00\03\04\00\04\00\03\02\01\01\02\01\00\03\01\FC\06\FF\01\04\00\FD\02\01\FD\03\02\02\FB\00\FE\04\00\FC\FB\06\00\01\FF\FC\04\FC\F9\FC\04\01\FF\02\FF\00\FB\FE\03\03\00\00\02\FF\05\00\00\03\01\02\02\02\02\03\FE\FC\02\FC\01\FC\FB\03\02\02\00\FE\04\04\02\FD\02\01\FE\FF\FF\02\FD\07\FC\04\03\01\00\FA\06\FE\01\FC\FF\07\03\01\FB\00\02\FC\F8\00\FE\03\03\FF\00\06\FD\07\01\01\FE\01\03\FF\03\FF\FA\FB\01\FE\02\04\FF\FE\03\01\FD\FF\00\00\FF\01\03\FE\03\00\00\01\00\FC\02\01\FE\02\FA\FF\FE\01\FF\01\02\04\03\FF\FF\04\FF\FE\00\02\FF\00\00\02\00\FB\03\FF\02\03\FE\00\FF\03\00\03\00\FC\02\FC\01\FC\00\FF\05\02\01\01\01\FB\FF\FF\01\00\FF\05\00\02\FE\FA\02\F8\FE\04\FC\00\02\FC\02\FD\00\03\04\06\03\FF\FF\05\01\01\FE\01\01\04\01\02\03\00\FD\FC\03\FE\04\F8\04\01\01\02\00\03\01\FF\01\04\00\01\FE\02\00\05\00\FF\FF\04\FD\04\FE\04\00\FF\FF\03\01\FB\05\00\02\02\03\FE\00\04\FF\01\03\01\02\02\04\FB\FE\F9\FB\FF\FE\03\02\FD\03\FD\00\FD\FF\00\FE\F9\FE\06\FE\00\FE\FF\FE\FD\00\FD\FF\FC\03\01\01\02\04\FD\FF\01\FF\03\FD\03\00\00\01\02\03\FD\FE\FD\FF\01\04\03\02\01\01\FC\F7\00\01\01\FF\F7\00\FF\02\F9\FF\FD\03\02\FE\00\02\05\FC\04\FF\02\FF\02\02\02\01\01\01\03\05\02\00\02\FF\00\04\00\03\00\02\06\FF\02\FB\02\F9\03\FF\FB\F7\FD\01\05\FF\FC\FE\FF\02\01\04\FA\05\00\FA\07\02\FB\05\02\04\F7\FD\FF\06\FA\08\01\FC\FE\FA\05\01\F3\01\06\02\03\00\FA\FD\00\F9\F6\FD\F8\06\04\FE\F7\FA\02\05\FC\04\F8\05\FD\F9\02\F9\02\FC\02\FC\FE\02\01\FB\FE\04\F7\05\FE\03\F4\FB\06\FD\03\FB\01\02\00\03\04\02\00\FB\FF\03\00\FE\F8\07\05\FF\F7\05\FD\F9\06\02\FF\06\FC\04\00\02\FB\05\F9\03\FD\FE\FE\FF\02\F7\03\02\FA\FE\03\FF\07\FE\07\03\01\FC\F8\F8\FA\00\F6\00\04\03\FF\FA\FE\01\03\F7\03\01\FA\06\FA\F3\05\02\F8\00\04\F7\F4\05\FE\FE\04\FF\01\F4\04\00\04\FE\FF\F4\03\FF\FD\08\FF\02\FE\F9\FB\F7\FB\02\FE\05\07\FF\FC\FB\FD\03\03\FC\01\03\FE\05\03\FE\FB\05\FF\FD\FA\FE\FD\04\03\02\00\02\01\01\FB\FA\04\06\03\FF\FD\FC\01\FF\F2\F7\FD\00\08\09\F9\01\05\FC\F4\F9\03\01\F4\04\00\06\FA\02\03\F4\00\FD\FB\01\09\00\FB\FA\01\03\00\FF\FD\F2\05\01\03\02\F8\FC\FD\03\04\F4\03\FB\02\04\FB\01\FA\FE\FC\04\00\03\03\FE\FB\03\F6\FE\04\F2\03\03\FB\03\00\F9\F6\F6\FE\01\06\01\01\02\00\04\05\0A\FB\F9\05\FD\FD\F3\03\FB\00\FD\FE\00\01\FD\F8\05\01\FE\03\FE\04\01\FF\F6\02\01\04\FF\FF\FE\FA\02\05\06\00\FD\FD\04\09\08\FF\FD\08\FA\FF\FA\F7\04\FB\FA\FD\09\F6\FE\F8\08\FB\02\04\FF\FC\F7\03\04\F9\FE\03\F9\04\F9\F6\05\F9\04\05\01\FB\04\01\F8\02\FF\06\03\00\FD\F2\FB\FE\07\FD\F5\F6\01\FF\07\05\04\F8\FA\02\F8\02\01\03\FF\06\04\F7\01\FB\02\02\F6\02\01\03\F8\FF\01\06\01\F9\01\04\FB\02\F5\FF\F4\00\FF\05\00\06\06\FF\F9\04\02\00\FB\F7\04\02\FC\01\F8\04\FE\FB\02\02\F8\02\FE\02\FE\F7\FC\F9\05\05\03\04\F9\03\F7\02\03\00\F8\03\FB\03\FE\01\01\01\00\FA\06\FC\FB\02\F2\05\FF\05\FE\FF\04\03\F6\F4\FA\03\FD\FD\01\FA\03\FD\F8\FC\07\03\FC\FA\07\FE\FF\FA\F6\03\04\05\F4\02\FD\04\02\05\00\FF\FB\FF\06\00\F7\01\01\F4\F8\04\00\04\FC\F6\FF\06\FD\04\FF\F6\03\06\FF\FD\05\03\01\01\FB\FE\F9\F4\00\03\F9\FE\07\06\FF\07\00\F5\00\FE\0F\F9\F5\FC\FE\02\F5\00\F9\01\F7\FC\FF\04\02\FD\07\01\04\FC\01\00\FA\04\FC\02\F9\05\07\FB\F9\FE\04\F6\03\FD\01\04\FD\FD\02\02\05\FF\00\04\F4\03\04\FB\FE\F9\FB\FD\05\FA\05\00\F8\08\FB\F8\02\F9\01\08\F1\02\07\02\FB\04\F8\FE\00\04\F9\01\FD\04\05\00\01\03\01\FB\FD\FE\F8\06\FA\08\00\F5\F9\FA\FF\05\FE\03\F8\04\FD\04\F7\FB\03\03\FB\FF\02\F8\02\FD\01\FE\FF\04", align 1 ; [#uses=4 type=[11200 x i8]*]
@resArray2 = internal unnamed_addr global [70 x i32] zeroinitializer, align 4 ; [#uses=4 type=[70 x i32]*]
@resArray1 = internal unnamed_addr global [70 x i32] zeroinitializer, align 4 ; [#uses=8 type=[70 x i32]*]
@bias_ = internal unnamed_addr global [150 x i8] c"\00\FF\00\00\FE\FF\02\00\FE\01\FD\00\FD\02\00\03\FF\FE\FF\FF\00\02\02\FF\00\00\01\00\00\FE\00\FE\02\04\00\03\FD\FE\00\02\02\02\00\03\FF\02\02\FF\01\FE\01\03\00\FF\FE\02\02\01\FF\FF\02\FE\00\00\02\02\02\00\FE\04\03\04\00\FF\00\02\FE\04\01\FF\01\04\00\FF\03\01\01\FF\02\FF\01\01\00\00\03\00\FF\01\00\03\01\FF\03\01\FF\01\03\00\01\00\04\00\00\00\01\00\FF\FF\FE\00\01\04\02\FE\02\02\FE\FF\00\03\FF\02\FF\05\00\FF\FF\01\02\01\00\00\FF\00\00\FF\01\FD\04\01", align 1 ; [#uses=4 type=[150 x i8]*]
@NeuralNetwork.str = internal unnamed_addr constant [14 x i8] c"NeuralNetwork\00" ; [#uses=1 type=[14 x i8]*]
@.str6 = private unnamed_addr constant [5 x i8] c"NNIO\00", align 1 ; [#uses=6 type=[5 x i8]*]
@.str5 = private unnamed_addr constant [10 x i8] c"s_axilite\00", align 1 ; [#uses=6 type=[10 x i8]*]
@.str4 = private unnamed_addr constant [18 x i8] c"softmax_lite_loop\00", align 1 ; [#uses=1 type=[18 x i8]*]
@.str3 = private unnamed_addr constant [12 x i8] c"relu_label1\00", align 1 ; [#uses=2 type=[12 x i8]*]
@.str2 = private unnamed_addr constant [19 x i8] c"runLayer_innerloop\00", align 1 ; [#uses=9 type=[19 x i8]*]
@.str1 = private unnamed_addr constant [19 x i8] c"runLayer_outerloop\00", align 1 ; [#uses=9 type=[19 x i8]*]
@.str = private unnamed_addr constant [1 x i8] zeroinitializer, align 1 ; [#uses=33 type=[1 x i8]*]

; [#uses=1]
define internal fastcc zeroext i8 @run_classification([80 x i32]* nocapture %input_r) {
  call void @llvm.dbg.value(metadata !{[80 x i32]* %input_r}, i64 0, metadata !68), !dbg !72 ; [debug line = 105:40] [debug variable = input_r]
  call void @llvm.dbg.value(metadata !{[80 x i32]* %input_r}, i64 0, metadata !73), !dbg !77 ; [debug line = 58:103@110:2] [debug variable = input]
  br label %1, !dbg !80                           ; [debug line = 61:2@110:2]

; <label>:1                                       ; preds = %3, %0
  %outNeurons.0.i2 = phi i7 [ 0, %0 ], [ %outNeurons, %3 ] ; [#uses=4 type=i7]
  %tmp = zext i7 %outNeurons.0.i2 to i32, !dbg !80 ; [#uses=1 type=i32] [debug line = 61:2@110:2]
  %exitcond1 = icmp eq i7 %outNeurons.0.i2, -58, !dbg !80 ; [#uses=1 type=i1] [debug line = 61:2@110:2]
  %2 = call i32 (...)* @_ssdm_op_SpecLoopTripCount(i64 70, i64 70, i64 70) ; [#uses=0 type=i32]
  br i1 %exitcond1, label %.preheader.i14.preheader, label %3, !dbg !80 ; [debug line = 61:2@110:2]

.preheader.i14.preheader:                         ; preds = %1
  br label %.preheader.i14, !dbg !83              ; [debug line = 65:26@110:2]

; <label>:3                                       ; preds = %1
  %tmp.56.i = zext i7 %outNeurons.0.i2 to i32, !dbg !85 ; [#uses=1 type=i32] [debug line = 31:2@62:24@110:2]
  %bias_.addr = getelementptr inbounds [150 x i8]* @bias_, i32 0, i32 %tmp.56.i, !dbg !85 ; [#uses=1 type=i8*] [debug line = 31:2@62:24@110:2]
  %bias_.load = load i8* %bias_.addr, align 1, !dbg !85 ; [#uses=1 type=i8] [debug line = 31:2@62:24@110:2]
  %tmp.4 = sext i8 %bias_.load to i32, !dbg !91   ; [#uses=1 type=i32] [debug line = 62:24@110:2]
  %resArray1.addr = getelementptr inbounds [70 x i32]* @resArray1, i32 0, i32 %tmp, !dbg !91 ; [#uses=1 type=i32*] [debug line = 62:24@110:2]
  store i32 %tmp.4, i32* %resArray1.addr, align 4, !dbg !91 ; [debug line = 62:24@110:2]
  %outNeurons = add i7 %outNeurons.0.i2, 1, !dbg !93 ; [#uses=1 type=i7] [debug line = 61:38@110:2]
  call void @llvm.dbg.value(metadata !{i7 %outNeurons}, i64 0, metadata !94) nounwind, !dbg !93 ; [debug line = 61:38@110:2] [debug variable = outNeurons]
  br label %1, !dbg !93                           ; [debug line = 61:38@110:2]

.preheader.i14:                                   ; preds = %10, %.preheader.i14.preheader
  %outNeurons.1.i1 = phi i7 [ %outNeurons.1, %10 ], [ 0, %.preheader.i14.preheader ] ; [#uses=4 type=i7]
  %tmp.6 = zext i7 %outNeurons.1.i1 to i32, !dbg !83 ; [#uses=1 type=i32] [debug line = 65:26@110:2]
  %exitcond9 = icmp eq i7 %outNeurons.1.i1, -58, !dbg !83 ; [#uses=1 type=i1] [debug line = 65:26@110:2]
  %4 = call i32 (...)* @_ssdm_op_SpecLoopTripCount(i64 70, i64 70, i64 70) ; [#uses=0 type=i32]
  br i1 %exitcond9, label %runLayer.exit20.preheader, label %5, !dbg !83 ; [debug line = 65:26@110:2]

runLayer.exit20.preheader:                        ; preds = %.preheader.i14
  br label %runLayer.exit20, !dbg !95             ; [debug line = 81:38@111:2]

; <label>:5                                       ; preds = %.preheader.i14
  call void (...)* @_ssdm_op_SpecLoopName([19 x i8]* @.str1) nounwind, !dbg !102 ; [debug line = 66:3@110:2]
  %tmp.1 = call i32 (...)* @_ssdm_op_SpecRegionBegin([19 x i8]* @.str1), !dbg !102 ; [#uses=1 type=i32] [debug line = 66:3@110:2]
  %resArray1.addr.1 = getelementptr inbounds [70 x i32]* @resArray1, i32 0, i32 %tmp.6, !dbg !104 ; [#uses=2 type=i32*] [debug line = 70:25@110:2]
  br label %6, !dbg !107                          ; [debug line = 67:50@110:2]

; <label>:6                                       ; preds = %8, %5
  %inNeurons.0.i1 = phi i7 [ 0, %5 ], [ %inNeurons, %8 ] ; [#uses=4 type=i7]
  %tmp.9 = zext i7 %inNeurons.0.i1 to i32, !dbg !107 ; [#uses=1 type=i32] [debug line = 67:50@110:2]
  %exitcond8 = icmp eq i7 %inNeurons.0.i1, -48, !dbg !107 ; [#uses=1 type=i1] [debug line = 67:50@110:2]
  %7 = call i32 (...)* @_ssdm_op_SpecLoopTripCount(i64 80, i64 80, i64 80) ; [#uses=0 type=i32]
  br i1 %exitcond8, label %10, label %8, !dbg !107 ; [debug line = 67:50@110:2]

; <label>:8                                       ; preds = %6
  call void (...)* @_ssdm_op_SpecLoopName([19 x i8]* @.str2) nounwind, !dbg !108 ; [debug line = 68:4@110:2]
  %tmp.3 = call i32 (...)* @_ssdm_op_SpecRegionBegin([19 x i8]* @.str2), !dbg !108 ; [#uses=1 type=i32] [debug line = 68:4@110:2]
  call void (...)* @_ssdm_op_SpecPipeline(i32 -1, i32 1, i32 1, i32 0, [1 x i8]* @.str) nounwind, !dbg !109 ; [debug line = 69:1@110:2]
  call void (...)* @_ssdm_SpecKeepAssert(i8 0) nounwind, !hlsrange !110
  %tmp.i.cast = zext i7 %inNeurons.0.i1 to i13, !dbg !111 ; [#uses=1 type=i13] [debug line = 55:2@70:25@110:2]
  %neuronIndex.i = mul i13 %tmp.i.cast, 70, !dbg !111 ; [#uses=1 type=i13] [debug line = 55:2@70:25@110:2]
  %tmp.47.i.cast = zext i7 %outNeurons.1.i1 to i13, !dbg !111 ; [#uses=1 type=i13] [debug line = 55:2@70:25@110:2]
  %tmp.49.i = add i13 %tmp.47.i.cast, %neuronIndex.i, !dbg !111 ; [#uses=1 type=i13] [debug line = 55:2@70:25@110:2]
  %tmp.49.i.cast = zext i13 %tmp.49.i to i32, !dbg !111 ; [#uses=1 type=i32] [debug line = 55:2@70:25@110:2]
  %weights_.addr = getelementptr inbounds [11200 x i8]* @weights_, i32 0, i32 %tmp.49.i.cast, !dbg !111 ; [#uses=1 type=i8*] [debug line = 55:2@70:25@110:2]
  %weights_.load = load i8* %weights_.addr, align 1, !dbg !111 ; [#uses=1 type=i8] [debug line = 55:2@70:25@110:2]
  %tmp.5 = sext i8 %weights_.load to i32, !dbg !104 ; [#uses=1 type=i32] [debug line = 70:25@110:2]
  %input_r.addr = getelementptr [80 x i32]* %input_r, i32 0, i32 %tmp.9, !dbg !104 ; [#uses=1 type=i32*] [debug line = 70:25@110:2]
  %input_r.load = load i32* %input_r.addr, align 4, !dbg !104 ; [#uses=1 type=i32] [debug line = 70:25@110:2]
  %tmp.8 = mul nsw i32 %tmp.5, %input_r.load, !dbg !104 ; [#uses=1 type=i32] [debug line = 70:25@110:2]
  %resArray1.load = load i32* %resArray1.addr.1, align 4, !dbg !104 ; [#uses=1 type=i32] [debug line = 70:25@110:2]
  %tmp.10 = add nsw i32 %tmp.8, %resArray1.load, !dbg !104 ; [#uses=1 type=i32] [debug line = 70:25@110:2]
  store i32 %tmp.10, i32* %resArray1.addr.1, align 4, !dbg !104 ; [debug line = 70:25@110:2]
  %9 = call i32 (...)* @_ssdm_op_SpecRegionEnd([19 x i8]* @.str2, i32 %tmp.3), !dbg !116 ; [#uses=0 type=i32] [debug line = 71:3@110:2]
  %inNeurons = add i7 %inNeurons.0.i1, 1, !dbg !117 ; [#uses=1 type=i7] [debug line = 67:80@110:2]
  call void @llvm.dbg.value(metadata !{i7 %inNeurons}, i64 0, metadata !118) nounwind, !dbg !117 ; [debug line = 67:80@110:2] [debug variable = inNeurons]
  br label %6, !dbg !117                          ; [debug line = 67:80@110:2]

; <label>:10                                      ; preds = %6
  %11 = call i32 (...)* @_ssdm_op_SpecRegionEnd([19 x i8]* @.str1, i32 %tmp.1), !dbg !119 ; [#uses=0 type=i32] [debug line = 72:2@110:2]
  %outNeurons.1 = add i7 %outNeurons.1.i1, 1, !dbg !120 ; [#uses=1 type=i7] [debug line = 65:72@110:2]
  call void @llvm.dbg.value(metadata !{i7 %outNeurons.1}, i64 0, metadata !94) nounwind, !dbg !120 ; [debug line = 65:72@110:2] [debug variable = outNeurons]
  br label %.preheader.i14, !dbg !120             ; [debug line = 65:72@110:2]

runLayer.exit20:                                  ; preds = %._crit_edge.i27, %runLayer.exit20.preheader
  %i.0.i1 = phi i7 [ %i, %._crit_edge.i27 ], [ 0, %runLayer.exit20.preheader ] ; [#uses=3 type=i7]
  %exitcond.i1 = icmp eq i7 %i.0.i1, -58, !dbg !95 ; [#uses=1 type=i1] [debug line = 81:38@111:2]
  %12 = call i32 (...)* @_ssdm_op_SpecLoopTripCount(i64 70, i64 70, i64 70) ; [#uses=0 type=i32]
  br i1 %exitcond.i1, label %relu.exit28.preheader, label %13, !dbg !95 ; [debug line = 81:38@111:2]

relu.exit28.preheader:                            ; preds = %runLayer.exit20
  br label %relu.exit28, !dbg !121                ; [debug line = 61:2@112:2]

; <label>:13                                      ; preds = %runLayer.exit20
  call void (...)* @_ssdm_op_SpecLoopName([12 x i8]* @.str3) nounwind, !dbg !123 ; [debug line = 82:3@111:2]
  %tmp.7 = zext i7 %i.0.i1 to i32, !dbg !125      ; [#uses=1 type=i32] [debug line = 83:3@111:2]
  %resArray1.addr.2 = getelementptr inbounds [70 x i32]* @resArray1, i32 0, i32 %tmp.7, !dbg !125 ; [#uses=2 type=i32*] [debug line = 83:3@111:2]
  %resArray1.load.1 = load i32* %resArray1.addr.2, align 4, !dbg !125 ; [#uses=1 type=i32] [debug line = 83:3@111:2]
  %tmp.2 = icmp slt i32 %resArray1.load.1, 0, !dbg !125 ; [#uses=1 type=i1] [debug line = 83:3@111:2]
  br i1 %tmp.2, label %14, label %._crit_edge.i27, !dbg !125 ; [debug line = 83:3@111:2]

; <label>:14                                      ; preds = %13
  store i32 0, i32* %resArray1.addr.2, align 4, !dbg !126 ; [debug line = 85:4@111:2]
  br label %._crit_edge.i27, !dbg !128            ; [debug line = 86:3@111:2]

._crit_edge.i27:                                  ; preds = %14, %13
  %i = add i7 %i.0.i1, 1, !dbg !129               ; [#uses=1 type=i7] [debug line = 81:58@111:2]
  call void @llvm.dbg.value(metadata !{i7 %i}, i64 0, metadata !130) nounwind, !dbg !129 ; [debug line = 81:58@111:2] [debug variable = i]
  br label %runLayer.exit20, !dbg !129            ; [debug line = 81:58@111:2]

relu.exit28:                                      ; preds = %16, %relu.exit28.preheader
  %outNeurons.0.i1 = phi i7 [ %outNeurons.2, %16 ], [ 0, %relu.exit28.preheader ] ; [#uses=4 type=i7]
  %tmp. = zext i7 %outNeurons.0.i1 to i32, !dbg !121 ; [#uses=1 type=i32] [debug line = 61:2@112:2]
  %exitcond7 = icmp eq i7 %outNeurons.0.i1, -58, !dbg !121 ; [#uses=1 type=i1] [debug line = 61:2@112:2]
  %15 = call i32 (...)* @_ssdm_op_SpecLoopTripCount(i64 70, i64 70, i64 70) ; [#uses=0 type=i32]
  br i1 %exitcond7, label %.preheader.i4.preheader, label %16, !dbg !121 ; [debug line = 61:2@112:2]

.preheader.i4.preheader:                          ; preds = %relu.exit28
  br label %.preheader.i4, !dbg !131              ; [debug line = 65:26@112:2]

; <label>:16                                      ; preds = %relu.exit28
  %neuron.assign = zext i7 %outNeurons.0.i1 to i8, !dbg !132 ; [#uses=1 type=i8] [debug line = 62:24@112:2]
  call void @llvm.dbg.value(metadata !{i8 %neuron.assign}, i64 0, metadata !133) nounwind, !dbg !134 ; [debug line = 19:54@62:24@112:2] [debug variable = neuron]
  %tmp.57.i = add i8 %neuron.assign, 70, !dbg !135 ; [#uses=1 type=i8] [debug line = 31:2@62:24@112:2]
  %tmp.57.i.cast = zext i8 %tmp.57.i to i32, !dbg !135 ; [#uses=1 type=i32] [debug line = 31:2@62:24@112:2]
  %bias_.addr.1 = getelementptr inbounds [150 x i8]* @bias_, i32 0, i32 %tmp.57.i.cast, !dbg !135 ; [#uses=1 type=i8*] [debug line = 31:2@62:24@112:2]
  %bias_.load.1 = load i8* %bias_.addr.1, align 1, !dbg !135 ; [#uses=2 type=i8] [debug line = 31:2@62:24@112:2]
  %tmp.58.i.cast = zext i8 %bias_.load.1 to i9, !dbg !135 ; [#uses=1 type=i9] [debug line = 31:2@62:24@112:2]
  %tmp.58.i.cast1 = zext i8 %bias_.load.1 to i11, !dbg !135 ; [#uses=1 type=i11] [debug line = 31:2@62:24@112:2]
  %_shl = shl nuw i11 %tmp.58.i.cast1, 3, !dbg !135 ; [#uses=1 type=i11] [debug line = 31:2@62:24@112:2]
  %_shl.cast = sext i11 %_shl to i12, !dbg !135   ; [#uses=1 type=i12] [debug line = 31:2@62:24@112:2]
  %_shl1 = shl nuw i9 %tmp.58.i.cast, 1, !dbg !135 ; [#uses=1 type=i9] [debug line = 31:2@62:24@112:2]
  %_shl1.cast = sext i9 %_shl1 to i12, !dbg !135  ; [#uses=1 type=i12] [debug line = 31:2@62:24@112:2]
  %tmp.60.i = add i12 %_shl.cast, %_shl1.cast, !dbg !135 ; [#uses=1 type=i12] [debug line = 31:2@62:24@112:2]
  %tmp.11 = sext i12 %tmp.60.i to i32, !dbg !132  ; [#uses=1 type=i32] [debug line = 62:24@112:2]
  %resArray2.addr = getelementptr inbounds [70 x i32]* @resArray2, i32 0, i32 %tmp., !dbg !132 ; [#uses=1 type=i32*] [debug line = 62:24@112:2]
  store i32 %tmp.11, i32* %resArray2.addr, align 4, !dbg !132 ; [debug line = 62:24@112:2]
  %outNeurons.2 = add i7 %outNeurons.0.i1, 1, !dbg !136 ; [#uses=1 type=i7] [debug line = 61:38@112:2]
  call void @llvm.dbg.value(metadata !{i7 %outNeurons.2}, i64 0, metadata !137) nounwind, !dbg !136 ; [debug line = 61:38@112:2] [debug variable = outNeurons]
  br label %relu.exit28, !dbg !136                ; [debug line = 61:38@112:2]

.preheader.i4:                                    ; preds = %23, %.preheader.i4.preheader
  %outNeurons.1.i3 = phi i7 [ %outNeurons.3, %23 ], [ 0, %.preheader.i4.preheader ] ; [#uses=4 type=i7]
  %tmp.12 = zext i7 %outNeurons.1.i3 to i32, !dbg !131 ; [#uses=1 type=i32] [debug line = 65:26@112:2]
  %exitcond6 = icmp eq i7 %outNeurons.1.i3, -58, !dbg !131 ; [#uses=1 type=i1] [debug line = 65:26@112:2]
  %17 = call i32 (...)* @_ssdm_op_SpecLoopTripCount(i64 70, i64 70, i64 70) ; [#uses=0 type=i32]
  br i1 %exitcond6, label %runLayer.exit10.preheader, label %18, !dbg !131 ; [debug line = 65:26@112:2]

runLayer.exit10.preheader:                        ; preds = %.preheader.i4
  br label %runLayer.exit10, !dbg !138            ; [debug line = 81:38@113:2]

; <label>:18                                      ; preds = %.preheader.i4
  call void (...)* @_ssdm_op_SpecLoopName([19 x i8]* @.str1) nounwind, !dbg !140 ; [debug line = 66:3@112:2]
  %tmp.13 = call i32 (...)* @_ssdm_op_SpecRegionBegin([19 x i8]* @.str1), !dbg !140 ; [#uses=1 type=i32] [debug line = 66:3@112:2]
  %resArray2.addr.1 = getelementptr inbounds [70 x i32]* @resArray2, i32 0, i32 %tmp.12, !dbg !141 ; [#uses=2 type=i32*] [debug line = 70:25@112:2]
  br label %19, !dbg !142                         ; [debug line = 67:50@112:2]

; <label>:19                                      ; preds = %21, %18
  %inNeurons.0.i6 = phi i7 [ 0, %18 ], [ %inNeurons.1, %21 ] ; [#uses=4 type=i7]
  %tmp.14 = zext i7 %inNeurons.0.i6 to i32, !dbg !142 ; [#uses=1 type=i32] [debug line = 67:50@112:2]
  %exitcond5 = icmp eq i7 %inNeurons.0.i6, -58, !dbg !142 ; [#uses=1 type=i1] [debug line = 67:50@112:2]
  %20 = call i32 (...)* @_ssdm_op_SpecLoopTripCount(i64 70, i64 70, i64 70) ; [#uses=0 type=i32]
  br i1 %exitcond5, label %23, label %21, !dbg !142 ; [debug line = 67:50@112:2]

; <label>:21                                      ; preds = %19
  call void (...)* @_ssdm_op_SpecLoopName([19 x i8]* @.str2) nounwind, !dbg !143 ; [debug line = 68:4@112:2]
  %tmp.17 = call i32 (...)* @_ssdm_op_SpecRegionBegin([19 x i8]* @.str2), !dbg !143 ; [#uses=1 type=i32] [debug line = 68:4@112:2]
  call void (...)* @_ssdm_op_SpecPipeline(i32 -1, i32 1, i32 1, i32 0, [1 x i8]* @.str) nounwind, !dbg !144 ; [debug line = 69:1@112:2]
  call void (...)* @_ssdm_SpecKeepAssert(i8 1) nounwind, !hlsrange !110
  %tmp.i2.cast = zext i7 %inNeurons.0.i6 to i14, !dbg !145 ; [#uses=1 type=i14] [debug line = 55:2@70:25@112:2]
  %neuronIndex.i3 = mul i14 %tmp.i2.cast, 70, !dbg !145 ; [#uses=1 type=i14] [debug line = 55:2@70:25@112:2]
  %tmp.47.i8.cast = zext i7 %outNeurons.1.i3 to i13, !dbg !145 ; [#uses=1 type=i13] [debug line = 55:2@70:25@112:2]
  %tmp1 = add i13 %tmp.47.i8.cast, -2592, !dbg !145 ; [#uses=1 type=i13] [debug line = 55:2@70:25@112:2]
  %tmp23.cast = zext i13 %tmp1 to i14, !dbg !145  ; [#uses=1 type=i14] [debug line = 55:2@70:25@112:2]
  %tmp.49.i9 = add i14 %neuronIndex.i3, %tmp23.cast, !dbg !145 ; [#uses=1 type=i14] [debug line = 55:2@70:25@112:2]
  %tmp.49.i9.cast = zext i14 %tmp.49.i9 to i32, !dbg !145 ; [#uses=1 type=i32] [debug line = 55:2@70:25@112:2]
  %weights_.addr.1 = getelementptr inbounds [11200 x i8]* @weights_, i32 0, i32 %tmp.49.i9.cast, !dbg !145 ; [#uses=1 type=i8*] [debug line = 55:2@70:25@112:2]
  %weights_.load.1 = load i8* %weights_.addr.1, align 1, !dbg !145 ; [#uses=1 type=i8] [debug line = 55:2@70:25@112:2]
  %tmp.18 = sext i8 %weights_.load.1 to i32, !dbg !141 ; [#uses=1 type=i32] [debug line = 70:25@112:2]
  %resArray1.addr.3 = getelementptr inbounds [70 x i32]* @resArray1, i32 0, i32 %tmp.14, !dbg !141 ; [#uses=1 type=i32*] [debug line = 70:25@112:2]
  %resArray1.load.2 = load i32* %resArray1.addr.3, align 4, !dbg !141 ; [#uses=1 type=i32] [debug line = 70:25@112:2]
  %tmp.19 = mul nsw i32 %tmp.18, %resArray1.load.2, !dbg !141 ; [#uses=1 type=i32] [debug line = 70:25@112:2]
  %resArray2.load = load i32* %resArray2.addr.1, align 4, !dbg !141 ; [#uses=1 type=i32] [debug line = 70:25@112:2]
  %tmp.20 = add nsw i32 %tmp.19, %resArray2.load, !dbg !141 ; [#uses=1 type=i32] [debug line = 70:25@112:2]
  store i32 %tmp.20, i32* %resArray2.addr.1, align 4, !dbg !141 ; [debug line = 70:25@112:2]
  %22 = call i32 (...)* @_ssdm_op_SpecRegionEnd([19 x i8]* @.str2, i32 %tmp.17), !dbg !146 ; [#uses=0 type=i32] [debug line = 71:3@112:2]
  %inNeurons.1 = add i7 %inNeurons.0.i6, 1, !dbg !147 ; [#uses=1 type=i7] [debug line = 67:80@112:2]
  call void @llvm.dbg.value(metadata !{i7 %inNeurons.1}, i64 0, metadata !148) nounwind, !dbg !147 ; [debug line = 67:80@112:2] [debug variable = inNeurons]
  br label %19, !dbg !147                         ; [debug line = 67:80@112:2]

; <label>:23                                      ; preds = %19
  %24 = call i32 (...)* @_ssdm_op_SpecRegionEnd([19 x i8]* @.str1, i32 %tmp.13), !dbg !149 ; [#uses=0 type=i32] [debug line = 72:2@112:2]
  %outNeurons.3 = add i7 %outNeurons.1.i3, 1, !dbg !150 ; [#uses=1 type=i7] [debug line = 65:72@112:2]
  call void @llvm.dbg.value(metadata !{i7 %outNeurons.3}, i64 0, metadata !137) nounwind, !dbg !150 ; [debug line = 65:72@112:2] [debug variable = outNeurons]
  br label %.preheader.i4, !dbg !150              ; [debug line = 65:72@112:2]

runLayer.exit10:                                  ; preds = %._crit_edge.i, %runLayer.exit10.preheader
  %i.0.i = phi i7 [ %i.1, %._crit_edge.i ], [ 0, %runLayer.exit10.preheader ] ; [#uses=3 type=i7]
  %exitcond.i = icmp eq i7 %i.0.i, -58, !dbg !138 ; [#uses=1 type=i1] [debug line = 81:38@113:2]
  %25 = call i32 (...)* @_ssdm_op_SpecLoopTripCount(i64 70, i64 70, i64 70) ; [#uses=0 type=i32]
  br i1 %exitcond.i, label %relu.exit.preheader, label %26, !dbg !138 ; [debug line = 81:38@113:2]

relu.exit.preheader:                              ; preds = %runLayer.exit10
  br label %relu.exit, !dbg !151                  ; [debug line = 61:2@114:2]

; <label>:26                                      ; preds = %runLayer.exit10
  call void (...)* @_ssdm_op_SpecLoopName([12 x i8]* @.str3) nounwind, !dbg !153 ; [debug line = 82:3@113:2]
  %tmp.15 = zext i7 %i.0.i to i32, !dbg !154      ; [#uses=1 type=i32] [debug line = 83:3@113:2]
  %resArray2.addr.2 = getelementptr inbounds [70 x i32]* @resArray2, i32 0, i32 %tmp.15, !dbg !154 ; [#uses=2 type=i32*] [debug line = 83:3@113:2]
  %resArray2.load.1 = load i32* %resArray2.addr.2, align 4, !dbg !154 ; [#uses=1 type=i32] [debug line = 83:3@113:2]
  %tmp.16 = icmp slt i32 %resArray2.load.1, 0, !dbg !154 ; [#uses=1 type=i1] [debug line = 83:3@113:2]
  br i1 %tmp.16, label %27, label %._crit_edge.i, !dbg !154 ; [debug line = 83:3@113:2]

; <label>:27                                      ; preds = %26
  store i32 0, i32* %resArray2.addr.2, align 4, !dbg !155 ; [debug line = 85:4@113:2]
  br label %._crit_edge.i, !dbg !156              ; [debug line = 86:3@113:2]

._crit_edge.i:                                    ; preds = %27, %26
  %i.1 = add i7 %i.0.i, 1, !dbg !157              ; [#uses=1 type=i7] [debug line = 81:58@113:2]
  call void @llvm.dbg.value(metadata !{i7 %i.1}, i64 0, metadata !158) nounwind, !dbg !157 ; [debug line = 81:58@113:2] [debug variable = i]
  br label %runLayer.exit10, !dbg !157            ; [debug line = 81:58@113:2]

relu.exit:                                        ; preds = %29, %relu.exit.preheader
  %outNeurons.0.i = phi i4 [ %outNeurons.4, %29 ], [ 0, %relu.exit.preheader ] ; [#uses=4 type=i4]
  %tmp.21 = zext i4 %outNeurons.0.i to i32, !dbg !151 ; [#uses=1 type=i32] [debug line = 61:2@114:2]
  %exitcond4 = icmp eq i4 %outNeurons.0.i, -6, !dbg !151 ; [#uses=1 type=i1] [debug line = 61:2@114:2]
  %28 = call i32 (...)* @_ssdm_op_SpecLoopTripCount(i64 10, i64 10, i64 10) ; [#uses=0 type=i32]
  br i1 %exitcond4, label %.preheader.i.preheader, label %29, !dbg !151 ; [debug line = 61:2@114:2]

.preheader.i.preheader:                           ; preds = %relu.exit
  br label %.preheader.i, !dbg !159               ; [debug line = 65:26@114:2]

; <label>:29                                      ; preds = %relu.exit
  %neuron.assign.1 = zext i4 %outNeurons.0.i to i8, !dbg !160 ; [#uses=1 type=i8] [debug line = 62:24@114:2]
  call void @llvm.dbg.value(metadata !{i8 %neuron.assign.1}, i64 0, metadata !161) nounwind, !dbg !162 ; [debug line = 19:54@62:24@114:2] [debug variable = neuron]
  %tmp.57.i1 = add i8 %neuron.assign.1, -116, !dbg !163 ; [#uses=1 type=i8] [debug line = 31:2@62:24@114:2]
  %tmp.57.i1.cast = zext i8 %tmp.57.i1 to i32, !dbg !163 ; [#uses=1 type=i32] [debug line = 31:2@62:24@114:2]
  %bias_.addr.2 = getelementptr inbounds [150 x i8]* @bias_, i32 0, i32 %tmp.57.i1.cast, !dbg !163 ; [#uses=1 type=i8*] [debug line = 31:2@62:24@114:2]
  %bias_.load.2 = load i8* %bias_.addr.2, align 1, !dbg !163 ; [#uses=1 type=i8] [debug line = 31:2@62:24@114:2]
  %tmp.58.i1 = sext i8 %bias_.load.2 to i16, !dbg !163 ; [#uses=1 type=i16] [debug line = 31:2@62:24@114:2]
  %tmp.60.i1 = mul i16 %tmp.58.i1, 100, !dbg !163 ; [#uses=1 type=i16] [debug line = 31:2@62:24@114:2]
  %tmp.22 = sext i16 %tmp.60.i1 to i32, !dbg !160 ; [#uses=1 type=i32] [debug line = 62:24@114:2]
  %resArray1.addr.4 = getelementptr inbounds [70 x i32]* @resArray1, i32 0, i32 %tmp.21, !dbg !160 ; [#uses=1 type=i32*] [debug line = 62:24@114:2]
  store i32 %tmp.22, i32* %resArray1.addr.4, align 4, !dbg !160 ; [debug line = 62:24@114:2]
  %outNeurons.4 = add i4 %outNeurons.0.i, 1, !dbg !164 ; [#uses=1 type=i4] [debug line = 61:38@114:2]
  call void @llvm.dbg.value(metadata !{i4 %outNeurons.4}, i64 0, metadata !165) nounwind, !dbg !164 ; [debug line = 61:38@114:2] [debug variable = outNeurons]
  br label %relu.exit, !dbg !164                  ; [debug line = 61:38@114:2]

.preheader.i:                                     ; preds = %36, %.preheader.i.preheader
  %outNeurons.1.i = phi i4 [ %outNeurons.5, %36 ], [ 0, %.preheader.i.preheader ] ; [#uses=4 type=i4]
  %tmp.23 = zext i4 %outNeurons.1.i to i32, !dbg !159 ; [#uses=1 type=i32] [debug line = 65:26@114:2]
  %exitcond3 = icmp eq i4 %outNeurons.1.i, -6, !dbg !159 ; [#uses=1 type=i1] [debug line = 65:26@114:2]
  %30 = call i32 (...)* @_ssdm_op_SpecLoopTripCount(i64 10, i64 10, i64 10) ; [#uses=0 type=i32]
  br i1 %exitcond3, label %runLayer.exit, label %31, !dbg !159 ; [debug line = 65:26@114:2]

; <label>:31                                      ; preds = %.preheader.i
  call void (...)* @_ssdm_op_SpecLoopName([19 x i8]* @.str1) nounwind, !dbg !166 ; [debug line = 66:3@114:2]
  %tmp.24 = call i32 (...)* @_ssdm_op_SpecRegionBegin([19 x i8]* @.str1), !dbg !166 ; [#uses=1 type=i32] [debug line = 66:3@114:2]
  %resArray1.addr.5 = getelementptr inbounds [70 x i32]* @resArray1, i32 0, i32 %tmp.23, !dbg !167 ; [#uses=2 type=i32*] [debug line = 70:25@114:2]
  br label %32, !dbg !168                         ; [debug line = 67:50@114:2]

; <label>:32                                      ; preds = %34, %31
  %inNeurons.0.i = phi i7 [ 0, %31 ], [ %inNeurons.2, %34 ] ; [#uses=5 type=i7]
  %tmp.25 = zext i7 %inNeurons.0.i to i32, !dbg !168 ; [#uses=1 type=i32] [debug line = 67:50@114:2]
  %exitcond2 = icmp eq i7 %inNeurons.0.i, -58, !dbg !168 ; [#uses=1 type=i1] [debug line = 67:50@114:2]
  %33 = call i32 (...)* @_ssdm_op_SpecLoopTripCount(i64 70, i64 70, i64 70) ; [#uses=0 type=i32]
  br i1 %exitcond2, label %36, label %34, !dbg !168 ; [debug line = 67:50@114:2]

; <label>:34                                      ; preds = %32
  call void (...)* @_ssdm_op_SpecLoopName([19 x i8]* @.str2) nounwind, !dbg !169 ; [debug line = 68:4@114:2]
  %tmp.28 = call i32 (...)* @_ssdm_op_SpecRegionBegin([19 x i8]* @.str2), !dbg !169 ; [#uses=1 type=i32] [debug line = 68:4@114:2]
  call void (...)* @_ssdm_op_SpecPipeline(i32 -1, i32 1, i32 1, i32 0, [1 x i8]* @.str) nounwind, !dbg !170 ; [debug line = 69:1@114:2]
  %tmp.i12.cast1 = zext i7 %inNeurons.0.i to i8, !dbg !171 ; [#uses=1 type=i8] [debug line = 53:3@70:25@114:2]
  %tmp.i12.cast = zext i7 %inNeurons.0.i to i10, !dbg !171 ; [#uses=1 type=i10] [debug line = 53:3@70:25@114:2]
  %_shl.i = shl nuw i10 %tmp.i12.cast, 3, !dbg !171 ; [#uses=1 type=i10] [debug line = 53:3@70:25@114:2]
  %_shl1.i = shl nuw i8 %tmp.i12.cast1, 1, !dbg !171 ; [#uses=1 type=i8] [debug line = 53:3@70:25@114:2]
  %_shl1.i15.cast = zext i8 %_shl1.i to i10, !dbg !171 ; [#uses=1 type=i10] [debug line = 53:3@70:25@114:2]
  %neuronIndex = add i10 %_shl1.i15.cast, %_shl.i, !dbg !171 ; [#uses=1 type=i10] [debug line = 53:3@70:25@114:2]
  call void @llvm.dbg.value(metadata !{i10 %neuronIndex}, i64 0, metadata !173) nounwind, !dbg !171 ; [debug line = 53:3@70:25@114:2] [debug variable = neuronIndex]
  %tmp.46.i17.cast = zext i10 %neuronIndex to i14, !dbg !174 ; [#uses=1 type=i14] [debug line = 55:2@70:25@114:2]
  %tmp.47.i18.cast = zext i4 %outNeurons.1.i to i14, !dbg !174 ; [#uses=1 type=i14] [debug line = 55:2@70:25@114:2]
  %tmp2 = add i14 %tmp.47.i18.cast, -5884, !dbg !174 ; [#uses=1 type=i14] [debug line = 55:2@70:25@114:2]
  %tmp.49.i1 = add i14 %tmp.46.i17.cast, %tmp2, !dbg !174 ; [#uses=1 type=i14] [debug line = 55:2@70:25@114:2]
  %tmp.49.i20.cast = zext i14 %tmp.49.i1 to i32, !dbg !174 ; [#uses=1 type=i32] [debug line = 55:2@70:25@114:2]
  %weights_.addr.2 = getelementptr inbounds [11200 x i8]* @weights_, i32 0, i32 %tmp.49.i20.cast, !dbg !174 ; [#uses=1 type=i8*] [debug line = 55:2@70:25@114:2]
  %weights_.load.2 = load i8* %weights_.addr.2, align 1, !dbg !174 ; [#uses=1 type=i8] [debug line = 55:2@70:25@114:2]
  %tmp.29 = sext i8 %weights_.load.2 to i32, !dbg !167 ; [#uses=1 type=i32] [debug line = 70:25@114:2]
  %resArray2.addr.3 = getelementptr inbounds [70 x i32]* @resArray2, i32 0, i32 %tmp.25, !dbg !167 ; [#uses=1 type=i32*] [debug line = 70:25@114:2]
  %resArray2.load.2 = load i32* %resArray2.addr.3, align 4, !dbg !167 ; [#uses=1 type=i32] [debug line = 70:25@114:2]
  %tmp.30 = mul nsw i32 %tmp.29, %resArray2.load.2, !dbg !167 ; [#uses=1 type=i32] [debug line = 70:25@114:2]
  %resArray1.load.4 = load i32* %resArray1.addr.5, align 4, !dbg !167 ; [#uses=1 type=i32] [debug line = 70:25@114:2]
  %tmp.31 = add nsw i32 %tmp.30, %resArray1.load.4, !dbg !167 ; [#uses=1 type=i32] [debug line = 70:25@114:2]
  store i32 %tmp.31, i32* %resArray1.addr.5, align 4, !dbg !167 ; [debug line = 70:25@114:2]
  %35 = call i32 (...)* @_ssdm_op_SpecRegionEnd([19 x i8]* @.str2, i32 %tmp.28), !dbg !175 ; [#uses=0 type=i32] [debug line = 71:3@114:2]
  %inNeurons.2 = add i7 %inNeurons.0.i, 1, !dbg !176 ; [#uses=1 type=i7] [debug line = 67:80@114:2]
  call void @llvm.dbg.value(metadata !{i7 %inNeurons.2}, i64 0, metadata !177) nounwind, !dbg !176 ; [debug line = 67:80@114:2] [debug variable = inNeurons]
  br label %32, !dbg !176                         ; [debug line = 67:80@114:2]

; <label>:36                                      ; preds = %32
  %37 = call i32 (...)* @_ssdm_op_SpecRegionEnd([19 x i8]* @.str1, i32 %tmp.24), !dbg !178 ; [#uses=0 type=i32] [debug line = 72:2@114:2]
  %outNeurons.5 = add i4 %outNeurons.1.i, 1, !dbg !179 ; [#uses=1 type=i4] [debug line = 65:72@114:2]
  call void @llvm.dbg.value(metadata !{i4 %outNeurons.5}, i64 0, metadata !165) nounwind, !dbg !179 ; [debug line = 65:72@114:2] [debug variable = outNeurons]
  br label %.preheader.i, !dbg !179               ; [debug line = 65:72@114:2]

runLayer.exit:                                    ; preds = %.preheader.i
  %max = load i32* getelementptr inbounds ([70 x i32]* @resArray1, i32 0, i32 0), align 4, !dbg !180 ; [#uses=1 type=i32] [debug line = 92:19@116:9]
  call void @llvm.dbg.value(metadata !{i32 %max}, i64 0, metadata !186) nounwind, !dbg !180 ; [debug line = 92:19@116:9] [debug variable = max]
  br label %38, !dbg !187                         ; [debug line = 95:44@116:9]

; <label>:38                                      ; preds = %._crit_edge.i32, %runLayer.exit
  %max.0.i = phi i32 [ %max, %runLayer.exit ], [ %max.1.max.0.i, %._crit_edge.i32 ] ; [#uses=2 type=i32]
  %max_index.0.i = phi i8 [ 0, %runLayer.exit ], [ %max_index.max_index.0.i, %._crit_edge.i32 ] ; [#uses=2 type=i8]
  %max_index = phi i4 [ 1, %runLayer.exit ], [ %i.2, %._crit_edge.i32 ] ; [#uses=4 type=i4]
  %max_index.cast = zext i4 %max_index to i8, !dbg !189 ; [#uses=1 type=i8] [debug line = 97:4@116:9]
  call void @llvm.dbg.value(metadata !{i4 %max_index}, i64 0, metadata !192) nounwind, !dbg !189 ; [debug line = 97:4@116:9] [debug variable = max_index]
  %exitcond = icmp eq i4 %max_index, -6, !dbg !187 ; [#uses=1 type=i1] [debug line = 95:44@116:9]
  %39 = call i32 (...)* @_ssdm_op_SpecLoopTripCount(i64 9, i64 9, i64 9) ; [#uses=0 type=i32]
  br i1 %exitcond, label %softmax_lite.exit, label %._crit_edge.i32, !dbg !187 ; [debug line = 95:44@116:9]

._crit_edge.i32:                                  ; preds = %38
  call void (...)* @_ssdm_op_SpecLoopName([18 x i8]* @.str4) nounwind, !dbg !193 ; [debug line = 95:70@116:9]
  %tmp.26 = zext i4 %max_index to i32, !dbg !194  ; [#uses=1 type=i32] [debug line = 96:3@116:9]
  %resArray1.addr.6 = getelementptr inbounds [70 x i32]* @resArray1, i32 0, i32 %tmp.26, !dbg !194 ; [#uses=1 type=i32*] [debug line = 96:3@116:9]
  %max.1 = load i32* %resArray1.addr.6, align 4, !dbg !194 ; [#uses=2 type=i32] [debug line = 96:3@116:9]
  call void @llvm.dbg.value(metadata !{i32 %max.1}, i64 0, metadata !186) nounwind, !dbg !195 ; [debug line = 98:4@116:9] [debug variable = max]
  %tmp.27 = icmp sgt i32 %max.1, %max.0.i, !dbg !194 ; [#uses=2 type=i1] [debug line = 96:3@116:9]
  %max.1.max.0.i = select i1 %tmp.27, i32 %max.1, i32 %max.0.i, !dbg !194 ; [#uses=1 type=i32] [debug line = 96:3@116:9]
  %max_index.max_index.0.i = select i1 %tmp.27, i8 %max_index.cast, i8 %max_index.0.i, !dbg !194 ; [#uses=1 type=i8] [debug line = 96:3@116:9]
  %i.2 = add i4 %max_index, 1, !dbg !196          ; [#uses=1 type=i4] [debug line = 95:64@116:9]
  call void @llvm.dbg.value(metadata !{i4 %i.2}, i64 0, metadata !197) nounwind, !dbg !196 ; [debug line = 95:64@116:9] [debug variable = i]
  br label %38, !dbg !196                         ; [debug line = 95:64@116:9]

softmax_lite.exit:                                ; preds = %38
  %max_index.0.i.lcssa = phi i8 [ %max_index.0.i, %38 ] ; [#uses=1 type=i8]
  ret i8 %max_index.0.i.lcssa, !dbg !185          ; [debug line = 116:9]
}

; [#uses=28]
declare void @llvm.dbg.value(metadata, i64, metadata) nounwind readnone

; [#uses=1]
declare void @_ssdm_op_SpecTopModule(...)

; [#uses=6]
declare i32 @_ssdm_op_SpecRegionEnd(...)

; [#uses=6]
declare i32 @_ssdm_op_SpecRegionBegin(...)

; [#uses=3]
declare void @_ssdm_op_SpecPipeline(...) nounwind

; [#uses=14]
declare i32 @_ssdm_op_SpecLoopTripCount(...)

; [#uses=9]
declare void @_ssdm_op_SpecLoopName(...) nounwind

; [#uses=6]
declare void @_ssdm_op_SpecInterface(...) nounwind

; [#uses=6]
declare void @_ssdm_op_SpecBitsMap(...)

; [#uses=2]
declare void @_ssdm_SpecKeepAssert(...)

; [#uses=0]
define zeroext i8 @NeuralNetwork([80 x i32]* %input_r, [11200 x i8]* %biasWeight_input_r, i8 signext %runNN_r, i8 signext %setBais_r, i8 signext %setWeight_r) nounwind {
  call void (...)* @_ssdm_op_SpecBitsMap([80 x i32]* %input_r) nounwind, !map !198
  call void (...)* @_ssdm_op_SpecBitsMap([11200 x i8]* %biasWeight_input_r) nounwind, !map !204
  call void (...)* @_ssdm_op_SpecBitsMap(i8 %runNN_r) nounwind, !map !210
  call void (...)* @_ssdm_op_SpecBitsMap(i8 %setBais_r) nounwind, !map !216
  call void (...)* @_ssdm_op_SpecBitsMap(i8 %setWeight_r) nounwind, !map !220
  call void (...)* @_ssdm_op_SpecBitsMap(i8 0) nounwind, !map !224
  call void (...)* @_ssdm_op_SpecTopModule([14 x i8]* @NeuralNetwork.str) nounwind
  call void @llvm.dbg.value(metadata !{[80 x i32]* %input_r}, i64 0, metadata !230), !dbg !235 ; [debug line = 119:33] [debug variable = input_r]
  call void @llvm.dbg.value(metadata !{[11200 x i8]* %biasWeight_input_r}, i64 0, metadata !236), !dbg !237 ; [debug line = 119:51] [debug variable = biasWeight_input_r]
  call void @llvm.dbg.value(metadata !{i8 %runNN_r}, i64 0, metadata !238), !dbg !239 ; [debug line = 119:99] [debug variable = runNN_r]
  call void @llvm.dbg.value(metadata !{i8 %setBais_r}, i64 0, metadata !240), !dbg !241 ; [debug line = 119:113] [debug variable = setBais_r]
  call void @llvm.dbg.value(metadata !{i8 %setWeight_r}, i64 0, metadata !242), !dbg !243 ; [debug line = 119:129] [debug variable = setWeight_r]
  call void (...)* @_ssdm_op_SpecInterface([80 x i32]* %input_r, [10 x i8]* @.str5, i32 0, i32 0, [1 x i8]* @.str, i32 0, i32 0, [5 x i8]* @.str6, [1 x i8]* @.str, [1 x i8]* @.str, i32 0, i32 0, i32 0, i32 0, [1 x i8]* @.str, [1 x i8]* @.str) nounwind
  call void (...)* @_ssdm_op_SpecInterface([11200 x i8]* %biasWeight_input_r, [10 x i8]* @.str5, i32 0, i32 0, [1 x i8]* @.str, i32 0, i32 0, [5 x i8]* @.str6, [1 x i8]* @.str, [1 x i8]* @.str, i32 0, i32 0, i32 0, i32 0, [1 x i8]* @.str, [1 x i8]* @.str) nounwind
  call void (...)* @_ssdm_op_SpecInterface(i8 %runNN_r, [10 x i8]* @.str5, i32 0, i32 0, [1 x i8]* @.str, i32 0, i32 0, [5 x i8]* @.str6, [1 x i8]* @.str, [1 x i8]* @.str, i32 0, i32 0, i32 0, i32 0, [1 x i8]* @.str, [1 x i8]* @.str) nounwind, !dbg !244 ; [debug line = 122:1]
  call void (...)* @_ssdm_op_SpecInterface(i8 %setBais_r, [10 x i8]* @.str5, i32 0, i32 0, [1 x i8]* @.str, i32 0, i32 0, [5 x i8]* @.str6, [1 x i8]* @.str, [1 x i8]* @.str, i32 0, i32 0, i32 0, i32 0, [1 x i8]* @.str, [1 x i8]* @.str) nounwind, !dbg !246 ; [debug line = 123:1]
  call void (...)* @_ssdm_op_SpecInterface(i8 %setWeight_r, [10 x i8]* @.str5, i32 0, i32 0, [1 x i8]* @.str, i32 0, i32 0, [5 x i8]* @.str6, [1 x i8]* @.str, [1 x i8]* @.str, i32 0, i32 0, i32 0, i32 0, [1 x i8]* @.str, [1 x i8]* @.str) nounwind, !dbg !247 ; [debug line = 124:1]
  call void (...)* @_ssdm_op_SpecInterface(i32 0, [10 x i8]* @.str5, i32 0, i32 0, [1 x i8]* @.str, i32 0, i32 0, [5 x i8]* @.str6, [1 x i8]* @.str, [1 x i8]* @.str, i32 0, i32 0, i32 0, i32 0, [1 x i8]* @.str, [1 x i8]* @.str) nounwind, !dbg !248 ; [debug line = 125:1]
  %tmp. = icmp eq i8 %runNN_r, 1, !dbg !249       ; [#uses=1 type=i1] [debug line = 129:2]
  %tmp.32 = icmp eq i8 %setWeight_r, 0, !dbg !249 ; [#uses=1 type=i1] [debug line = 129:2]
  %tmp = or i8 %setBais_r, %setWeight_r, !dbg !249 ; [#uses=1 type=i8] [debug line = 129:2]
  %tmp.3 = icmp eq i8 %tmp, 0, !dbg !249          ; [#uses=1 type=i1] [debug line = 129:2]
  %or.cond1 = and i1 %tmp.3, %tmp., !dbg !249     ; [#uses=1 type=i1] [debug line = 129:2]
  br i1 %or.cond1, label %1, label %2, !dbg !249  ; [debug line = 129:2]

; <label>:1                                       ; preds = %0
  %res = call fastcc zeroext i8 @run_classification([80 x i32]* %input_r) nounwind, !dbg !250 ; [#uses=1 type=i8] [debug line = 130:9]
  call void @llvm.dbg.value(metadata !{i8 %res}, i64 0, metadata !252), !dbg !250 ; [debug line = 130:9] [debug variable = res]
  br label %._crit_edge, !dbg !253                ; [debug line = 131:2]

; <label>:2                                       ; preds = %0
  %tmp.33 = icmp eq i8 %runNN_r, 0, !dbg !254     ; [#uses=1 type=i1] [debug line = 132:7]
  %tmp.34 = icmp eq i8 %setBais_r, 1, !dbg !254   ; [#uses=1 type=i1] [debug line = 132:7]
  %tmp1 = and i1 %tmp.34, %tmp.32, !dbg !254      ; [#uses=1 type=i1] [debug line = 132:7]
  %or.cond3 = and i1 %tmp1, %tmp.33, !dbg !254    ; [#uses=1 type=i1] [debug line = 132:7]
  br i1 %or.cond3, label %.preheader7.preheader, label %5, !dbg !254 ; [debug line = 132:7]

.preheader7.preheader:                            ; preds = %2
  br label %.preheader7, !dbg !255                ; [debug line = 13:31@133:3]

.preheader7:                                      ; preds = %4, %.preheader7.preheader
  %i.0.i = phi i8 [ %i, %4 ], [ 0, %.preheader7.preheader ] ; [#uses=3 type=i8]
  %tmp.38 = icmp eq i8 %i.0.i, -106, !dbg !255    ; [#uses=1 type=i1] [debug line = 13:31@133:3]
  %3 = call i32 (...)* @_ssdm_op_SpecLoopTripCount(i64 150, i64 150, i64 150) nounwind ; [#uses=0 type=i32]
  br i1 %tmp.38, label %._crit_edge.loopexit5, label %4, !dbg !255 ; [debug line = 13:31@133:3]

; <label>:4                                       ; preds = %.preheader7
  %tmp.39 = zext i8 %i.0.i to i32, !dbg !263      ; [#uses=2 type=i32] [debug line = 15:3@133:3]
  %biasWeight_input_r.addr = getelementptr [11200 x i8]* %biasWeight_input_r, i32 0, i32 %tmp.39, !dbg !263 ; [#uses=1 type=i8*] [debug line = 15:3@133:3]
  %biasWeight_input_r.load = load i8* %biasWeight_input_r.addr, align 1, !dbg !263 ; [#uses=1 type=i8] [debug line = 15:3@133:3]
  %bias_.addr = getelementptr inbounds [150 x i8]* @bias_, i32 0, i32 %tmp.39, !dbg !263 ; [#uses=1 type=i8*] [debug line = 15:3@133:3]
  store i8 %biasWeight_input_r.load, i8* %bias_.addr, align 1, !dbg !263 ; [debug line = 15:3@133:3]
  %i = add i8 %i.0.i, 1, !dbg !265                ; [#uses=1 type=i8] [debug line = 13:50@133:3]
  call void @llvm.dbg.value(metadata !{i8 %i}, i64 0, metadata !266) nounwind, !dbg !265 ; [debug line = 13:50@133:3] [debug variable = i]
  br label %.preheader7, !dbg !265                ; [debug line = 13:50@133:3]

; <label>:5                                       ; preds = %2
  %tmp.35 = or i8 %setBais_r, %runNN_r, !dbg !268 ; [#uses=1 type=i8] [debug line = 136:7]
  %tmp.36 = icmp eq i8 %tmp.35, 0, !dbg !268      ; [#uses=1 type=i1] [debug line = 136:7]
  %tmp.37 = icmp eq i8 %setWeight_r, 1, !dbg !268 ; [#uses=1 type=i1] [debug line = 136:7]
  %or.cond5 = and i1 %tmp.36, %tmp.37, !dbg !268  ; [#uses=1 type=i1] [debug line = 136:7]
  br i1 %or.cond5, label %.preheader.preheader, label %._crit_edge, !dbg !268 ; [debug line = 136:7]

.preheader.preheader:                             ; preds = %5
  br label %.preheader, !dbg !269                 ; [debug line = 36:31@137:3]

.preheader:                                       ; preds = %7, %.preheader.preheader
  %i.0.i6 = phi i14 [ %i.3, %7 ], [ 0, %.preheader.preheader ] ; [#uses=3 type=i14]
  %tmp.40 = icmp eq i14 %i.0.i6, -5184, !dbg !269 ; [#uses=1 type=i1] [debug line = 36:31@137:3]
  %6 = call i32 (...)* @_ssdm_op_SpecLoopTripCount(i64 11200, i64 11200, i64 11200) nounwind ; [#uses=0 type=i32]
  br i1 %tmp.40, label %._crit_edge.loopexit, label %7, !dbg !269 ; [debug line = 36:31@137:3]

; <label>:7                                       ; preds = %.preheader
  %tmp.41 = zext i14 %i.0.i6 to i32, !dbg !275    ; [#uses=2 type=i32] [debug line = 38:3@137:3]
  %biasWeight_input_r.addr.1 = getelementptr [11200 x i8]* %biasWeight_input_r, i32 0, i32 %tmp.41, !dbg !275 ; [#uses=1 type=i8*] [debug line = 38:3@137:3]
  %biasWeight_input_r.load.1 = load i8* %biasWeight_input_r.addr.1, align 1, !dbg !275 ; [#uses=1 type=i8] [debug line = 38:3@137:3]
  %weights_.addr = getelementptr inbounds [11200 x i8]* @weights_, i32 0, i32 %tmp.41, !dbg !275 ; [#uses=1 type=i8*] [debug line = 38:3@137:3]
  store i8 %biasWeight_input_r.load.1, i8* %weights_.addr, align 1, !dbg !275 ; [debug line = 38:3@137:3]
  %i.3 = add i14 %i.0.i6, 1, !dbg !277            ; [#uses=1 type=i14] [debug line = 36:60@137:3]
  call void @llvm.dbg.value(metadata !{i14 %i.3}, i64 0, metadata !278) nounwind, !dbg !277 ; [debug line = 36:60@137:3] [debug variable = i]
  br label %.preheader, !dbg !277                 ; [debug line = 36:60@137:3]

._crit_edge.loopexit:                             ; preds = %.preheader
  br label %._crit_edge

._crit_edge.loopexit5:                            ; preds = %.preheader7
  br label %._crit_edge

._crit_edge:                                      ; preds = %._crit_edge.loopexit5, %._crit_edge.loopexit, %5, %1
  %res.2 = phi i8 [ %res, %1 ], [ -2, %5 ], [ -1, %._crit_edge.loopexit ], [ -1, %._crit_edge.loopexit5 ] ; [#uses=1 type=i8]
  ret i8 %res.2, !dbg !279                        ; [debug line = 141:2]
}

!opencl.kernels = !{!0, !7, !13, !15, !21, !27, !31, !31, !35, !38}
!hls.encrypted.func = !{}
!llvm.map.gv = !{}
!llvm.dbg.cu = !{!42}

!0 = metadata !{null, metadata !1, metadata !2, metadata !3, metadata !4, metadata !5, metadata !6}
!1 = metadata !{metadata !"kernel_arg_addr_space", i32 1}
!2 = metadata !{metadata !"kernel_arg_access_qual", metadata !"none"}
!3 = metadata !{metadata !"kernel_arg_type", metadata !"char*"}
!4 = metadata !{metadata !"kernel_arg_type_qual", metadata !""}
!5 = metadata !{metadata !"kernel_arg_name", metadata !"bias_r"}
!6 = metadata !{metadata !"reqd_work_group_size", i32 1, i32 1, i32 1}
!7 = metadata !{null, metadata !8, metadata !9, metadata !10, metadata !11, metadata !12, metadata !6}
!8 = metadata !{metadata !"kernel_arg_addr_space", i32 0, i32 0}
!9 = metadata !{metadata !"kernel_arg_access_qual", metadata !"none", metadata !"none"}
!10 = metadata !{metadata !"kernel_arg_type", metadata !"uchar", metadata !"uchar"}
!11 = metadata !{metadata !"kernel_arg_type_qual", metadata !"", metadata !""}
!12 = metadata !{metadata !"kernel_arg_name", metadata !"layer", metadata !"neuron"}
!13 = metadata !{null, metadata !1, metadata !2, metadata !3, metadata !4, metadata !14, metadata !6}
!14 = metadata !{metadata !"kernel_arg_name", metadata !"weights_r"}
!15 = metadata !{null, metadata !16, metadata !17, metadata !18, metadata !19, metadata !20, metadata !6}
!16 = metadata !{metadata !"kernel_arg_addr_space", i32 0, i32 0, i32 0}
!17 = metadata !{metadata !"kernel_arg_access_qual", metadata !"none", metadata !"none", metadata !"none"}
!18 = metadata !{metadata !"kernel_arg_type", metadata !"uchar", metadata !"uchar", metadata !"uchar"}
!19 = metadata !{metadata !"kernel_arg_type_qual", metadata !"", metadata !"", metadata !""}
!20 = metadata !{metadata !"kernel_arg_name", metadata !"layer", metadata !"neuron", metadata !"number"}
!21 = metadata !{null, metadata !22, metadata !23, metadata !24, metadata !25, metadata !26, metadata !6}
!22 = metadata !{metadata !"kernel_arg_addr_space", i32 0, i32 0, i32 0, i32 1, i32 1}
!23 = metadata !{metadata !"kernel_arg_access_qual", metadata !"none", metadata !"none", metadata !"none", metadata !"none", metadata !"none"}
!24 = metadata !{metadata !"kernel_arg_type", metadata !"uchar", metadata !"uchar", metadata !"uchar", metadata !"int*", metadata !"int*"}
!25 = metadata !{metadata !"kernel_arg_type_qual", metadata !"", metadata !"", metadata !"", metadata !"", metadata !""}
!26 = metadata !{metadata !"kernel_arg_name", metadata !"layer", metadata !"numOfInNeurons", metadata !"numOfOutNeurons", metadata !"input", metadata !"output"}
!27 = metadata !{null, metadata !28, metadata !17, metadata !29, metadata !19, metadata !30, metadata !6}
!28 = metadata !{metadata !"kernel_arg_addr_space", i32 1, i32 1, i32 0}
!29 = metadata !{metadata !"kernel_arg_type", metadata !"int*", metadata !"int*", metadata !"char"}
!30 = metadata !{metadata !"kernel_arg_name", metadata !"i", metadata !"o", metadata !"idx"}
!31 = metadata !{null, metadata !32, metadata !9, metadata !33, metadata !11, metadata !34, metadata !6}
!32 = metadata !{metadata !"kernel_arg_addr_space", i32 1, i32 0}
!33 = metadata !{metadata !"kernel_arg_type", metadata !"int*", metadata !"uchar"}
!34 = metadata !{metadata !"kernel_arg_name", metadata !"data", metadata !"numOfNeurons"}
!35 = metadata !{null, metadata !1, metadata !2, metadata !36, metadata !4, metadata !37, metadata !6}
!36 = metadata !{metadata !"kernel_arg_type", metadata !"int*"}
!37 = metadata !{metadata !"kernel_arg_name", metadata !"input_r"}
!38 = metadata !{null, metadata !39, metadata !23, metadata !40, metadata !25, metadata !41, metadata !6}
!39 = metadata !{metadata !"kernel_arg_addr_space", i32 1, i32 1, i32 0, i32 0, i32 0}
!40 = metadata !{metadata !"kernel_arg_type", metadata !"int*", metadata !"char*", metadata !"char", metadata !"char", metadata !"char"}
!41 = metadata !{metadata !"kernel_arg_name", metadata !"input_r", metadata !"biasWeight_input_r", metadata !"runNN_r", metadata !"setBais_r", metadata !"setWeight_r"}
!42 = metadata !{i32 786449, i32 0, i32 4, metadata !"C:/Users/jespe/Desktop/Uni_Civil_9_Semester/Embedded_course/ERTS_final_project/HLS_project/NeuralNetwork_HLS/solution1_/.autopilot/db/neuralnetwork_ccode.pragma.2.cpp", metadata !"C:\5CUsers\5Cjespe\5CDesktop\5CUni_Civil_9_Semester\5CEmbedded_course\5CERTS_final_project\5CHLS_project", metadata !"clang version 3.1 ", i1 true, i1 false, metadata !"", i32 0, null, null, null, metadata !43} ; [ DW_TAG_compile_unit ]
!43 = metadata !{metadata !44}
!44 = metadata !{metadata !45, metadata !51, metadata !63, metadata !67}
!45 = metadata !{i32 786484, i32 0, null, metadata !"weights_", metadata !"weights_", metadata !"_ZL8weights_", metadata !46, i32 7, metadata !47, i32 1, i32 1, [11200 x i8]* @weights_} ; [ DW_TAG_variable ]
!46 = metadata !{i32 786473, metadata !"../NN_Code/NN_Code/neuralnetwork_ccode.cpp", metadata !"C:\5CUsers\5Cjespe\5CDesktop\5CUni_Civil_9_Semester\5CEmbedded_course\5CERTS_final_project\5CHLS_project", null} ; [ DW_TAG_file_type ]
!47 = metadata !{i32 786433, null, metadata !"", null, i32 0, i64 89600, i64 8, i32 0, i32 0, metadata !48, metadata !49, i32 0, i32 0} ; [ DW_TAG_array_type ]
!48 = metadata !{i32 786468, null, metadata !"char", null, i32 0, i64 8, i64 8, i64 0, i32 0, i32 6} ; [ DW_TAG_base_type ]
!49 = metadata !{metadata !50}
!50 = metadata !{i32 786465, i64 0, i64 11199}    ; [ DW_TAG_subrange_type ]
!51 = metadata !{i32 786484, i32 0, metadata !52, metadata !"resArray1", metadata !"resArray1", metadata !"", metadata !46, i32 107, metadata !60, i32 1, i32 1, [70 x i32]* @resArray1} ; [ DW_TAG_variable ]
!52 = metadata !{i32 786478, i32 0, metadata !46, metadata !"run_classification", metadata !"run_classification", metadata !"_Z18run_classificationPi", metadata !46, i32 105, metadata !53, i1 false, i1 true, i32 0, i32 0, null, i32 256, i1 false, null, null, null, metadata !58, i32 105} ; [ DW_TAG_subprogram ]
!53 = metadata !{i32 786453, i32 0, metadata !"", i32 0, i32 0, i64 0, i64 0, i64 0, i32 0, null, metadata !54, i32 0, i32 0} ; [ DW_TAG_subroutine_type ]
!54 = metadata !{metadata !55, metadata !56}
!55 = metadata !{i32 786468, null, metadata !"unsigned char", null, i32 0, i64 8, i64 8, i64 0, i32 0, i32 8} ; [ DW_TAG_base_type ]
!56 = metadata !{i32 786447, null, metadata !"", null, i32 0, i64 32, i64 32, i64 0, i32 0, metadata !57} ; [ DW_TAG_pointer_type ]
!57 = metadata !{i32 786468, null, metadata !"int", null, i32 0, i64 32, i64 32, i64 0, i32 0, i32 5} ; [ DW_TAG_base_type ]
!58 = metadata !{metadata !59}
!59 = metadata !{i32 786468}                      ; [ DW_TAG_base_type ]
!60 = metadata !{i32 786433, null, metadata !"", null, i32 0, i64 2240, i64 32, i32 0, i32 0, metadata !57, metadata !61, i32 0, i32 0} ; [ DW_TAG_array_type ]
!61 = metadata !{metadata !62}
!62 = metadata !{i32 786465, i64 0, i64 69}       ; [ DW_TAG_subrange_type ]
!63 = metadata !{i32 786484, i32 0, null, metadata !"bias_", metadata !"bias_", metadata !"_ZL5bias_", metadata !46, i32 3, metadata !64, i32 1, i32 1, [150 x i8]* @bias_} ; [ DW_TAG_variable ]
!64 = metadata !{i32 786433, null, metadata !"", null, i32 0, i64 1200, i64 8, i32 0, i32 0, metadata !48, metadata !65, i32 0, i32 0} ; [ DW_TAG_array_type ]
!65 = metadata !{metadata !66}
!66 = metadata !{i32 786465, i64 0, i64 149}      ; [ DW_TAG_subrange_type ]
!67 = metadata !{i32 786484, i32 0, metadata !52, metadata !"resArray2", metadata !"resArray2", metadata !"", metadata !46, i32 108, metadata !60, i32 1, i32 1, [70 x i32]* @resArray2} ; [ DW_TAG_variable ]
!68 = metadata !{i32 786689, metadata !52, metadata !"input_r", null, i32 105, metadata !69, i32 0, i32 0} ; [ DW_TAG_arg_variable ]
!69 = metadata !{i32 786433, null, metadata !"", null, i32 0, i64 2560, i64 32, i32 0, i32 0, metadata !57, metadata !70, i32 0, i32 0} ; [ DW_TAG_array_type ]
!70 = metadata !{metadata !71}
!71 = metadata !{i32 786465, i64 0, i64 79}       ; [ DW_TAG_subrange_type ]
!72 = metadata !{i32 105, i32 40, metadata !52, null}
!73 = metadata !{i32 786689, metadata !74, metadata !"input", null, i32 58, metadata !69, i32 0, i32 0} ; [ DW_TAG_arg_variable ]
!74 = metadata !{i32 786478, i32 0, metadata !46, metadata !"runLayer", metadata !"runLayer", metadata !"_Z8runLayerhhhPiS_", metadata !46, i32 58, metadata !75, i1 false, i1 true, i32 0, i32 0, null, i32 256, i1 false, null, null, null, metadata !58, i32 58} ; [ DW_TAG_subprogram ]
!75 = metadata !{i32 786453, i32 0, metadata !"", i32 0, i32 0, i64 0, i64 0, i64 0, i32 0, null, metadata !76, i32 0, i32 0} ; [ DW_TAG_subroutine_type ]
!76 = metadata !{null, metadata !55, metadata !55, metadata !55, metadata !56, metadata !56}
!77 = metadata !{i32 58, i32 103, metadata !74, metadata !78}
!78 = metadata !{i32 110, i32 2, metadata !79, null}
!79 = metadata !{i32 786443, metadata !52, i32 105, i32 49, metadata !46, i32 28} ; [ DW_TAG_lexical_block ]
!80 = metadata !{i32 61, i32 2, metadata !81, metadata !78}
!81 = metadata !{i32 786443, metadata !82, i32 61, i32 2, metadata !46, i32 13} ; [ DW_TAG_lexical_block ]
!82 = metadata !{i32 786443, metadata !74, i32 58, i32 124, metadata !46, i32 12} ; [ DW_TAG_lexical_block ]
!83 = metadata !{i32 65, i32 26, metadata !84, metadata !78}
!84 = metadata !{i32 786443, metadata !82, i32 65, i32 21, metadata !46, i32 15} ; [ DW_TAG_lexical_block ]
!85 = metadata !{i32 31, i32 2, metadata !86, metadata !91}
!86 = metadata !{i32 786443, metadata !87, i32 19, i32 62, metadata !46, i32 3} ; [ DW_TAG_lexical_block ]
!87 = metadata !{i32 786478, i32 0, metadata !46, metadata !"getBias", metadata !"getBias", metadata !"_Z7getBiashh", metadata !46, i32 19, metadata !88, i1 false, i1 true, i32 0, i32 0, null, i32 256, i1 false, null, null, null, metadata !58, i32 19} ; [ DW_TAG_subprogram ]
!88 = metadata !{i32 786453, i32 0, metadata !"", i32 0, i32 0, i64 0, i64 0, i64 0, i32 0, null, metadata !89, i32 0, i32 0} ; [ DW_TAG_subroutine_type ]
!89 = metadata !{metadata !90, metadata !55, metadata !55}
!90 = metadata !{i32 786468, null, metadata !"short", null, i32 0, i64 16, i64 16, i64 0, i32 0, i32 5} ; [ DW_TAG_base_type ]
!91 = metadata !{i32 62, i32 24, metadata !92, metadata !78}
!92 = metadata !{i32 786443, metadata !81, i32 61, i32 51, metadata !46, i32 14} ; [ DW_TAG_lexical_block ]
!93 = metadata !{i32 61, i32 38, metadata !81, metadata !78}
!94 = metadata !{i32 786688, metadata !82, metadata !"outNeurons", metadata !46, i32 60, metadata !90, i32 0, metadata !78} ; [ DW_TAG_auto_variable ]
!95 = metadata !{i32 81, i32 38, metadata !96, metadata !101}
!96 = metadata !{i32 786443, metadata !97, i32 81, i32 14, metadata !46, i32 21} ; [ DW_TAG_lexical_block ]
!97 = metadata !{i32 786443, metadata !98, i32 79, i32 50, metadata !46, i32 20} ; [ DW_TAG_lexical_block ]
!98 = metadata !{i32 786478, i32 0, metadata !46, metadata !"relu", metadata !"relu", metadata !"_Z4reluPih", metadata !46, i32 79, metadata !99, i1 false, i1 true, i32 0, i32 0, null, i32 256, i1 false, null, null, null, metadata !58, i32 79} ; [ DW_TAG_subprogram ]
!99 = metadata !{i32 786453, i32 0, metadata !"", i32 0, i32 0, i64 0, i64 0, i64 0, i32 0, null, metadata !100, i32 0, i32 0} ; [ DW_TAG_subroutine_type ]
!100 = metadata !{null, metadata !56, metadata !55}
!101 = metadata !{i32 111, i32 2, metadata !79, null}
!102 = metadata !{i32 66, i32 3, metadata !103, metadata !78}
!103 = metadata !{i32 786443, metadata !84, i32 66, i32 2, metadata !46, i32 16} ; [ DW_TAG_lexical_block ]
!104 = metadata !{i32 70, i32 25, metadata !105, metadata !78}
!105 = metadata !{i32 786443, metadata !106, i32 68, i32 3, metadata !46, i32 18} ; [ DW_TAG_lexical_block ]
!106 = metadata !{i32 786443, metadata !103, i32 67, i32 22, metadata !46, i32 17} ; [ DW_TAG_lexical_block ]
!107 = metadata !{i32 67, i32 50, metadata !106, metadata !78}
!108 = metadata !{i32 68, i32 4, metadata !105, metadata !78}
!109 = metadata !{i32 69, i32 1, metadata !105, metadata !78}
!110 = metadata !{i8 0, i8 2, i8 0, i8 2}         
!111 = metadata !{i32 55, i32 2, metadata !112, metadata !104}
!112 = metadata !{i32 786443, metadata !113, i32 42, i32 81, metadata !46, i32 9} ; [ DW_TAG_lexical_block ]
!113 = metadata !{i32 786478, i32 0, metadata !46, metadata !"getWeight", metadata !"getWeight", metadata !"_Z9getWeighthhh", metadata !46, i32 42, metadata !114, i1 false, i1 true, i32 0, i32 0, null, i32 256, i1 false, null, null, null, metadata !58, i32 42} ; [ DW_TAG_subprogram ]
!114 = metadata !{i32 786453, i32 0, metadata !"", i32 0, i32 0, i64 0, i64 0, i64 0, i32 0, null, metadata !115, i32 0, i32 0} ; [ DW_TAG_subroutine_type ]
!115 = metadata !{metadata !48, metadata !55, metadata !55, metadata !55}
!116 = metadata !{i32 71, i32 3, metadata !105, metadata !78}
!117 = metadata !{i32 67, i32 80, metadata !106, metadata !78}
!118 = metadata !{i32 786688, metadata !106, metadata !"inNeurons", metadata !46, i32 67, metadata !90, i32 0, metadata !78} ; [ DW_TAG_auto_variable ]
!119 = metadata !{i32 72, i32 2, metadata !103, metadata !78}
!120 = metadata !{i32 65, i32 72, metadata !84, metadata !78}
!121 = metadata !{i32 61, i32 2, metadata !81, metadata !122}
!122 = metadata !{i32 112, i32 2, metadata !79, null}
!123 = metadata !{i32 82, i32 3, metadata !124, metadata !101}
!124 = metadata !{i32 786443, metadata !96, i32 82, i32 2, metadata !46, i32 22} ; [ DW_TAG_lexical_block ]
!125 = metadata !{i32 83, i32 3, metadata !124, metadata !101}
!126 = metadata !{i32 85, i32 4, metadata !127, metadata !101}
!127 = metadata !{i32 786443, metadata !124, i32 84, i32 3, metadata !46, i32 23} ; [ DW_TAG_lexical_block ]
!128 = metadata !{i32 86, i32 3, metadata !127, metadata !101}
!129 = metadata !{i32 81, i32 58, metadata !96, metadata !101}
!130 = metadata !{i32 786688, metadata !96, metadata !"i", metadata !46, i32 81, metadata !55, i32 0, metadata !101} ; [ DW_TAG_auto_variable ]
!131 = metadata !{i32 65, i32 26, metadata !84, metadata !122}
!132 = metadata !{i32 62, i32 24, metadata !92, metadata !122}
!133 = metadata !{i32 786689, metadata !87, metadata !"neuron", metadata !46, i32 33554451, metadata !55, i32 0, metadata !132} ; [ DW_TAG_arg_variable ]
!134 = metadata !{i32 19, i32 54, metadata !87, metadata !132}
!135 = metadata !{i32 31, i32 2, metadata !86, metadata !132}
!136 = metadata !{i32 61, i32 38, metadata !81, metadata !122}
!137 = metadata !{i32 786688, metadata !82, metadata !"outNeurons", metadata !46, i32 60, metadata !90, i32 0, metadata !122} ; [ DW_TAG_auto_variable ]
!138 = metadata !{i32 81, i32 38, metadata !96, metadata !139}
!139 = metadata !{i32 113, i32 2, metadata !79, null}
!140 = metadata !{i32 66, i32 3, metadata !103, metadata !122}
!141 = metadata !{i32 70, i32 25, metadata !105, metadata !122}
!142 = metadata !{i32 67, i32 50, metadata !106, metadata !122}
!143 = metadata !{i32 68, i32 4, metadata !105, metadata !122}
!144 = metadata !{i32 69, i32 1, metadata !105, metadata !122}
!145 = metadata !{i32 55, i32 2, metadata !112, metadata !141}
!146 = metadata !{i32 71, i32 3, metadata !105, metadata !122}
!147 = metadata !{i32 67, i32 80, metadata !106, metadata !122}
!148 = metadata !{i32 786688, metadata !106, metadata !"inNeurons", metadata !46, i32 67, metadata !90, i32 0, metadata !122} ; [ DW_TAG_auto_variable ]
!149 = metadata !{i32 72, i32 2, metadata !103, metadata !122}
!150 = metadata !{i32 65, i32 72, metadata !84, metadata !122}
!151 = metadata !{i32 61, i32 2, metadata !81, metadata !152}
!152 = metadata !{i32 114, i32 2, metadata !79, null}
!153 = metadata !{i32 82, i32 3, metadata !124, metadata !139}
!154 = metadata !{i32 83, i32 3, metadata !124, metadata !139}
!155 = metadata !{i32 85, i32 4, metadata !127, metadata !139}
!156 = metadata !{i32 86, i32 3, metadata !127, metadata !139}
!157 = metadata !{i32 81, i32 58, metadata !96, metadata !139}
!158 = metadata !{i32 786688, metadata !96, metadata !"i", metadata !46, i32 81, metadata !55, i32 0, metadata !139} ; [ DW_TAG_auto_variable ]
!159 = metadata !{i32 65, i32 26, metadata !84, metadata !152}
!160 = metadata !{i32 62, i32 24, metadata !92, metadata !152}
!161 = metadata !{i32 786689, metadata !87, metadata !"neuron", metadata !46, i32 33554451, metadata !55, i32 0, metadata !160} ; [ DW_TAG_arg_variable ]
!162 = metadata !{i32 19, i32 54, metadata !87, metadata !160}
!163 = metadata !{i32 31, i32 2, metadata !86, metadata !160}
!164 = metadata !{i32 61, i32 38, metadata !81, metadata !152}
!165 = metadata !{i32 786688, metadata !82, metadata !"outNeurons", metadata !46, i32 60, metadata !90, i32 0, metadata !152} ; [ DW_TAG_auto_variable ]
!166 = metadata !{i32 66, i32 3, metadata !103, metadata !152}
!167 = metadata !{i32 70, i32 25, metadata !105, metadata !152}
!168 = metadata !{i32 67, i32 50, metadata !106, metadata !152}
!169 = metadata !{i32 68, i32 4, metadata !105, metadata !152}
!170 = metadata !{i32 69, i32 1, metadata !105, metadata !152}
!171 = metadata !{i32 53, i32 3, metadata !172, metadata !167}
!172 = metadata !{i32 786443, metadata !112, i32 51, i32 2, metadata !46, i32 11} ; [ DW_TAG_lexical_block ]
!173 = metadata !{i32 786688, metadata !112, metadata !"neuronIndex", metadata !46, i32 45, metadata !90, i32 0, metadata !167} ; [ DW_TAG_auto_variable ]
!174 = metadata !{i32 55, i32 2, metadata !112, metadata !167}
!175 = metadata !{i32 71, i32 3, metadata !105, metadata !152}
!176 = metadata !{i32 67, i32 80, metadata !106, metadata !152}
!177 = metadata !{i32 786688, metadata !106, metadata !"inNeurons", metadata !46, i32 67, metadata !90, i32 0, metadata !152} ; [ DW_TAG_auto_variable ]
!178 = metadata !{i32 72, i32 2, metadata !103, metadata !152}
!179 = metadata !{i32 65, i32 72, metadata !84, metadata !152}
!180 = metadata !{i32 92, i32 19, metadata !181, metadata !185}
!181 = metadata !{i32 786443, metadata !182, i32 90, i32 67, metadata !46, i32 24} ; [ DW_TAG_lexical_block ]
!182 = metadata !{i32 786478, i32 0, metadata !46, metadata !"softmax_lite", metadata !"softmax_lite", metadata !"_Z12softmax_litePih", metadata !46, i32 90, metadata !183, i1 false, i1 true, i32 0, i32 0, null, i32 256, i1 false, null, null, null, metadata !58, i32 90} ; [ DW_TAG_subprogram ]
!183 = metadata !{i32 786453, i32 0, metadata !"", i32 0, i32 0, i64 0, i64 0, i64 0, i32 0, null, metadata !184, i32 0, i32 0} ; [ DW_TAG_subroutine_type ]
!184 = metadata !{metadata !55, metadata !56, metadata !55}
!185 = metadata !{i32 116, i32 9, metadata !79, null}
!186 = metadata !{i32 786688, metadata !181, metadata !"max", metadata !46, i32 92, metadata !57, i32 0, metadata !185} ; [ DW_TAG_auto_variable ]
!187 = metadata !{i32 95, i32 44, metadata !188, metadata !185}
!188 = metadata !{i32 786443, metadata !181, i32 95, i32 20, metadata !46, i32 25} ; [ DW_TAG_lexical_block ]
!189 = metadata !{i32 97, i32 4, metadata !190, metadata !185}
!190 = metadata !{i32 786443, metadata !191, i32 96, i32 22, metadata !46, i32 27} ; [ DW_TAG_lexical_block ]
!191 = metadata !{i32 786443, metadata !188, i32 95, i32 69, metadata !46, i32 26} ; [ DW_TAG_lexical_block ]
!192 = metadata !{i32 786688, metadata !181, metadata !"max_index", metadata !46, i32 93, metadata !55, i32 0, metadata !185} ; [ DW_TAG_auto_variable ]
!193 = metadata !{i32 95, i32 70, metadata !191, metadata !185}
!194 = metadata !{i32 96, i32 3, metadata !191, metadata !185}
!195 = metadata !{i32 98, i32 4, metadata !190, metadata !185}
!196 = metadata !{i32 95, i32 64, metadata !188, metadata !185}
!197 = metadata !{i32 786688, metadata !188, metadata !"i", metadata !46, i32 95, metadata !55, i32 0, metadata !185} ; [ DW_TAG_auto_variable ]
!198 = metadata !{metadata !199}
!199 = metadata !{i32 0, i32 31, metadata !200}
!200 = metadata !{metadata !201}
!201 = metadata !{metadata !"input_r", metadata !202, metadata !"int", i32 0, i32 31}
!202 = metadata !{metadata !203}
!203 = metadata !{i32 0, i32 79, i32 1}
!204 = metadata !{metadata !205}
!205 = metadata !{i32 0, i32 7, metadata !206}
!206 = metadata !{metadata !207}
!207 = metadata !{metadata !"biasWeight_input_r", metadata !208, metadata !"char", i32 0, i32 7}
!208 = metadata !{metadata !209}
!209 = metadata !{i32 0, i32 11199, i32 1}
!210 = metadata !{metadata !211}
!211 = metadata !{i32 0, i32 7, metadata !212}
!212 = metadata !{metadata !213}
!213 = metadata !{metadata !"runNN_r", metadata !214, metadata !"char", i32 0, i32 7}
!214 = metadata !{metadata !215}
!215 = metadata !{i32 0, i32 0, i32 0}
!216 = metadata !{metadata !217}
!217 = metadata !{i32 0, i32 7, metadata !218}
!218 = metadata !{metadata !219}
!219 = metadata !{metadata !"setBais_r", metadata !214, metadata !"char", i32 0, i32 7}
!220 = metadata !{metadata !221}
!221 = metadata !{i32 0, i32 7, metadata !222}
!222 = metadata !{metadata !223}
!223 = metadata !{metadata !"setWeight_r", metadata !214, metadata !"char", i32 0, i32 7}
!224 = metadata !{metadata !225}
!225 = metadata !{i32 0, i32 7, metadata !226}
!226 = metadata !{metadata !227}
!227 = metadata !{metadata !"return", metadata !228, metadata !"unsigned char", i32 0, i32 7}
!228 = metadata !{metadata !229}
!229 = metadata !{i32 0, i32 1, i32 0}
!230 = metadata !{i32 786689, metadata !231, metadata !"input_r", null, i32 119, metadata !69, i32 0, i32 0} ; [ DW_TAG_arg_variable ]
!231 = metadata !{i32 786478, i32 0, metadata !46, metadata !"NeuralNetwork", metadata !"NeuralNetwork", metadata !"_Z13NeuralNetworkPiPcccc", metadata !46, i32 119, metadata !232, i1 false, i1 true, i32 0, i32 0, null, i32 256, i1 false, null, null, null, metadata !58, i32 119} ; [ DW_TAG_subprogram ]
!232 = metadata !{i32 786453, i32 0, metadata !"", i32 0, i32 0, i64 0, i64 0, i64 0, i32 0, null, metadata !233, i32 0, i32 0} ; [ DW_TAG_subroutine_type ]
!233 = metadata !{metadata !55, metadata !56, metadata !234, metadata !48, metadata !48, metadata !48}
!234 = metadata !{i32 786447, null, metadata !"", null, i32 0, i64 32, i64 32, i64 0, i32 0, metadata !48} ; [ DW_TAG_pointer_type ]
!235 = metadata !{i32 119, i32 33, metadata !231, null}
!236 = metadata !{i32 786689, metadata !231, metadata !"biasWeight_input_r", null, i32 119, metadata !47, i32 0, i32 0} ; [ DW_TAG_arg_variable ]
!237 = metadata !{i32 119, i32 51, metadata !231, null}
!238 = metadata !{i32 786689, metadata !231, metadata !"runNN_r", metadata !46, i32 50331767, metadata !48, i32 0, i32 0} ; [ DW_TAG_arg_variable ]
!239 = metadata !{i32 119, i32 99, metadata !231, null}
!240 = metadata !{i32 786689, metadata !231, metadata !"setBais_r", metadata !46, i32 67108983, metadata !48, i32 0, i32 0} ; [ DW_TAG_arg_variable ]
!241 = metadata !{i32 119, i32 113, metadata !231, null}
!242 = metadata !{i32 786689, metadata !231, metadata !"setWeight_r", metadata !46, i32 83886199, metadata !48, i32 0, i32 0} ; [ DW_TAG_arg_variable ]
!243 = metadata !{i32 119, i32 129, metadata !231, null}
!244 = metadata !{i32 122, i32 1, metadata !245, null}
!245 = metadata !{i32 786443, metadata !231, i32 119, i32 142, metadata !46, i32 29} ; [ DW_TAG_lexical_block ]
!246 = metadata !{i32 123, i32 1, metadata !245, null}
!247 = metadata !{i32 124, i32 1, metadata !245, null}
!248 = metadata !{i32 125, i32 1, metadata !245, null}
!249 = metadata !{i32 129, i32 2, metadata !245, null}
!250 = metadata !{i32 130, i32 9, metadata !251, null}
!251 = metadata !{i32 786443, metadata !245, i32 129, i32 56, metadata !46, i32 30} ; [ DW_TAG_lexical_block ]
!252 = metadata !{i32 786688, metadata !245, metadata !"res", metadata !46, i32 127, metadata !55, i32 0, i32 0} ; [ DW_TAG_auto_variable ]
!253 = metadata !{i32 131, i32 2, metadata !251, null}
!254 = metadata !{i32 132, i32 7, metadata !245, null}
!255 = metadata !{i32 13, i32 31, metadata !256, metadata !261}
!256 = metadata !{i32 786443, metadata !257, i32 13, i32 2, metadata !46, i32 1} ; [ DW_TAG_lexical_block ]
!257 = metadata !{i32 786443, metadata !258, i32 11, i32 40, metadata !46, i32 0} ; [ DW_TAG_lexical_block ]
!258 = metadata !{i32 786478, i32 0, metadata !46, metadata !"setBias", metadata !"setBias", metadata !"_Z7setBiasPc", metadata !46, i32 11, metadata !259, i1 false, i1 true, i32 0, i32 0, null, i32 256, i1 false, null, null, null, metadata !58, i32 11} ; [ DW_TAG_subprogram ]
!259 = metadata !{i32 786453, i32 0, metadata !"", i32 0, i32 0, i64 0, i64 0, i64 0, i32 0, null, metadata !260, i32 0, i32 0} ; [ DW_TAG_subroutine_type ]
!260 = metadata !{null, metadata !234}
!261 = metadata !{i32 133, i32 3, metadata !262, null}
!262 = metadata !{i32 786443, metadata !245, i32 132, i32 61, metadata !46, i32 31} ; [ DW_TAG_lexical_block ]
!263 = metadata !{i32 15, i32 3, metadata !264, metadata !261}
!264 = metadata !{i32 786443, metadata !256, i32 14, i32 2, metadata !46, i32 2} ; [ DW_TAG_lexical_block ]
!265 = metadata !{i32 13, i32 50, metadata !256, metadata !261}
!266 = metadata !{i32 786688, metadata !256, metadata !"i", metadata !46, i32 13, metadata !267, i32 0, metadata !261} ; [ DW_TAG_auto_variable ]
!267 = metadata !{i32 786468, null, metadata !"unsigned short", null, i32 0, i64 16, i64 16, i64 0, i32 0, i32 7} ; [ DW_TAG_base_type ]
!268 = metadata !{i32 136, i32 7, metadata !245, null}
!269 = metadata !{i32 36, i32 31, metadata !270, metadata !273}
!270 = metadata !{i32 786443, metadata !271, i32 36, i32 2, metadata !46, i32 7} ; [ DW_TAG_lexical_block ]
!271 = metadata !{i32 786443, metadata !272, i32 34, i32 56, metadata !46, i32 6} ; [ DW_TAG_lexical_block ]
!272 = metadata !{i32 786478, i32 0, metadata !46, metadata !"setWeights", metadata !"setWeights", metadata !"_Z10setWeightsPc", metadata !46, i32 34, metadata !259, i1 false, i1 true, i32 0, i32 0, null, i32 256, i1 false, null, null, null, metadata !58, i32 34} ; [ DW_TAG_subprogram ]
!273 = metadata !{i32 137, i32 3, metadata !274, null}
!274 = metadata !{i32 786443, metadata !245, i32 136, i32 61, metadata !46, i32 32} ; [ DW_TAG_lexical_block ]
!275 = metadata !{i32 38, i32 3, metadata !276, metadata !273}
!276 = metadata !{i32 786443, metadata !270, i32 37, i32 2, metadata !46, i32 8} ; [ DW_TAG_lexical_block ]
!277 = metadata !{i32 36, i32 60, metadata !270, metadata !273}
!278 = metadata !{i32 786688, metadata !270, metadata !"i", metadata !46, i32 36, metadata !267, i32 0, metadata !273} ; [ DW_TAG_auto_variable ]
!279 = metadata !{i32 141, i32 2, metadata !245, null}
